ASxxxx Linker V03.00 + NoICE + sdld,  page 1.
Hexadecimal  [32-Bits]

Area                                    Addr        Size        Decimal Bytes (Attributes)
--------------------------------        ----        ----        ------- ----- ------------
.  .ABS.                            00000000    00000000 =           0. bytes (ABS,CON)

      Value  Global                              Global Defined In Module
      -----  --------------------------------   ------------------------
     00000000  .__.ABS.                           
     00000000  _rRAMG                             
     00000000  l__BASE                         
     00000000  l__BSS                          
     00000000  l__CABS                         
     00000000  l__CODE_0                       
     00000000  l__CRASH_HEADER                 
     00000000  l__CRASH_SCRATCH                
     00000000  l__DABS                         
     00000000  l__EHL_TRAMPOLINE               
     00000000  l__HEADER                       
     00000000  l__HEADER_LCD                   
     00000000  l__HEADER_SIO                   
     00000000  l__HEADER_TIMER                 
     00000000  l__HEAP                         
     00000000  l__HRAM                         
     00000000  l__LIT                          
     00000000  s__CABS                         
     00000000  s__CRASH_HEADER                 
     00000000  s__CRASH_HEADER0                
     00000000  s__CRASH_HEADER1                
     00000000  s__CRASH_SCRATCH                
     00000000  s__CRASH_SCRATCH2               
     00000000  s__DABS                         
     00000000  s__EHL_TRAMPOLINE               
     00000000  s__EHL_TRAMPOLINE0              
     00000000  s__HEADER                       
     00000000  s__HEADER0                      
     00000000  s__HEADER1                      
     00000000  s__HEADER10                     
     00000000  s__HEADER11                     
     00000000  s__HEADER2                      
     00000000  s__HEADER3                      
     00000000  s__HEADER4                      
     00000000  s__HEADER5                      
     00000000  s__HEADER6                      
     00000000  s__HEADER7                      
     00000000  s__HEADER8                      
     00000000  s__HEADER9                      
     00000000  s__HEADER_LCD                   
     00000000  s__HEADER_LCD0                  
     00000000  s__HEADER_SIO                   
     00000000  s__HEADER_SIO0                  
     00000000  s__HEADER_TIMER                 
     00000000  s__HEADER_TIMER0                
     00000000  s__HEADERa                      
     00000000  s__HEADERb                      
     00000000  s__HEADERc                      
     00000000  s__HEADERd                      
     00000000  s__HEADERe                      
ASxxxx Linker V03.00 + NoICE + sdld,  page 2.
Hexadecimal  [32-Bits]

Area                                    Addr        Size        Decimal Bytes (Attributes)
--------------------------------        ----        ----        ------- ----- ------------
.  .ABS.                            00000000    00000000 =           0. bytes (ABS,CON)

      Value  Global                              Global Defined In Module
      -----  --------------------------------   ------------------------
     00000000  s__HEADERf                      
     00000000  s__HRAM                         
     00000000  s__HRAM12                       
     00000001  ___bank_ACTOR                      actor
     00000001  ___bank_SGB_border_chr             border
     00000001  ___bank_SGB_border_map             border
     00000001  ___bank_SGB_border_pal             border
     00000001  ___bank_VM_SGB                     vm_sgb
     00000001  ___bank_actor_2_interact           actor_2_interact
     00000001  ___mute_mask_sound_legacy_0        sound_legacy_0
     00000001  ___mute_mask_sound_legacy_2        sound_legacy_2
     00000001  b_activate_actor                   actor
     00000001  b_activate_actors_in_col           actor
     00000001  b_activate_actors_in_row           actor
     00000001  b_actor_at_tile                    actor
     00000001  b_actor_get_frame_offset           actor
     00000001  b_actor_in_front_of_player         actor
     00000001  b_actor_overlapping_bb             actor
     00000001  b_actor_overlapping_player         actor
     00000001  b_actor_set_anim_idle              actor
     00000001  b_actor_set_anim_moving            actor
     00000001  b_actor_set_dir                    actor
     00000001  b_actor_set_frame_offset           actor
     00000001  b_actor_set_frames                 actor
     00000001  b_actors_handle_player_collision   actor
     00000001  b_actors_init                      actor
     00000001  b_check_collision_in_direction     actor
     00000001  b_deactivate_actor                 actor
     00000001  b_player_init                      actor
     00000001  b_set_sgb_border                   sgb_border
     00000001  b_ui_draw_frame                    ui
     00000001  b_ui_draw_text_buffer_char         ui
     00000001  b_ui_init                          ui
     00000001  b_ui_load_tiles                    ui
     00000001  b_ui_run_menu                      ui
     00000001  b_ui_run_modal                     ui
     00000001  b_ui_set_start_tile                ui
     00000001  l__GSFINAL                      
     00000001  l__HEADER0                      
     00000001  l__HEADER11                     
     00000001  l__HEADER9                      
     00000001  l__HEADERa                      
     00000001  l__HEADERb                      
     00000001  l__HEADERd                      
     00000001  l__HEADERe                      
     00000002  ___bank_VM_ACTOR                   vm_actor
     00000002  ___bank_VM_MAIN                    vm
     00000002  ___bank_bg_a11_tileset             bg_a11_tileset
     00000002  ___bank_scene_date_init            scene_date_init
     00000002  ___bank_script_player_damage       script_player_damage
     00000002  b_platform_init                    platform
ASxxxx Linker V03.00 + NoICE + sdld,  page 3.
Hexadecimal  [32-Bits]

Area                                    Addr        Size        Decimal Bytes (Attributes)
--------------------------------        ----        ----        ------- ----- ------------
.  .ABS.                            00000000    00000000 =           0. bytes (ABS,CON)

      Value  Global                              Global Defined In Module
      -----  --------------------------------   ------------------------
     00000002  b_platform_update                  platform
     00000002  b_script_detach_hthread            vm
     00000002  b_script_execute                   vm
     00000002  b_script_runner_init               vm
     00000002  b_script_terminate                 vm
     00000002  b_vm_actor_activate                vm_actor
     00000002  b_vm_actor_deactivate              vm_actor
     00000002  b_vm_actor_emote                   vm_actor
     00000002  b_vm_actor_get_angle               vm_actor
     00000002  b_vm_actor_get_anim_frame          vm_actor
     00000002  b_vm_actor_get_dir                 vm_actor
     00000002  b_vm_actor_get_pos                 vm_actor
     00000002  b_vm_actor_move_cancel             vm_actor
     00000002  b_vm_actor_move_to                 vm_actor
     00000002  b_vm_actor_replace_tile            vm_actor
     00000002  b_vm_actor_set_anim                vm_actor
     00000002  b_vm_actor_set_anim_frame          vm_actor
     00000002  b_vm_actor_set_anim_set            vm_actor
     00000002  b_vm_actor_set_anim_tick           vm_actor
     00000002  b_vm_actor_set_bounds              vm_actor
     00000002  b_vm_actor_set_dir                 vm_actor
     00000002  b_vm_actor_set_flags               vm_actor
     00000002  b_vm_actor_set_move_speed          vm_actor
     00000002  b_vm_actor_set_pos                 vm_actor
     00000002  b_vm_actor_set_spritesheet         vm_actor
     00000002  b_vm_actor_set_spritesheet_by_re   vm_actor
     00000002  b_vm_actor_terminate_update        vm_actor
     00000002  b_vm_call                          vm
     00000002  b_vm_call_far                      vm
     00000002  b_vm_get_indirect                  vm
     00000002  b_vm_get_int16                     vm
     00000002  b_vm_get_int8                      vm
     00000002  b_vm_get_tlocal                    vm
     00000002  b_vm_get_uint8                     vm
     00000002  b_vm_idle                          vm
     00000002  b_vm_if                            vm
     00000002  b_vm_if_const                      vm
     00000002  b_vm_init_rng                      vm
     00000002  b_vm_invoke                        vm
     00000002  b_vm_join                          vm
     00000002  b_vm_jump                          vm
     00000002  b_vm_lock                          vm
     00000002  b_vm_loop                          vm
     00000002  b_vm_memcpy                        vm
     00000002  b_vm_memset                        vm
     00000002  b_vm_poll_loaded                   vm
     00000002  b_vm_pop                           vm
     00000002  b_vm_push                          vm
     00000002  b_vm_push_reference                vm
     00000002  b_vm_push_value                    vm
     00000002  b_vm_push_value_ind                vm
ASxxxx Linker V03.00 + NoICE + sdld,  page 4.
Hexadecimal  [32-Bits]

Area                                    Addr        Size        Decimal Bytes (Attributes)
--------------------------------        ----        ----        ------- ----- ------------
.  .ABS.                            00000000    00000000 =           0. bytes (ABS,CON)

      Value  Global                              Global Defined In Module
      -----  --------------------------------   ------------------------
     00000002  b_vm_raise                         vm
     00000002  b_vm_rand                          vm
     00000002  b_vm_reserve                       vm
     00000002  b_vm_ret                           vm
     00000002  b_vm_ret_far                       vm
     00000002  b_vm_set                           vm
     00000002  b_vm_set_const                     vm
     00000002  b_vm_set_const_int16               vm
     00000002  b_vm_set_const_int8                vm
     00000002  b_vm_set_indirect                  vm
     00000002  b_vm_set_int16                     vm
     00000002  b_vm_set_int8                      vm
     00000002  b_vm_set_uint8                     vm
     00000002  b_vm_terminate                     vm
     00000002  b_vm_test_terminate                vm
     00000002  b_vm_unlock                        vm
     00000002  b_wait_frames                      vm
     00000002  l__HEADER5                      
     00000002  l__HEADERc                      
     00000002  l__HEADERf                      
     00000003  ___bank_VM_UI                      vm_ui
     00000003  ___bank_actor_ul_update            actor_ul_update
     00000003  ___bank_font_gbs_variable_width    font_gbs_variable_width
     00000003  ___bank_scene_a11                  scene_a11
     00000003  b_adventure_init                   adventure
     00000003  b_adventure_update                 adventure
     00000003  b_do_load_palette                  data_manager
     00000003  b_load_background                  data_manager
     00000003  b_load_bkg_tileset                 data_manager
     00000003  b_load_bounds                      data_manager
     00000003  b_load_emote                       data_manager
     00000003  b_load_init                        data_manager
     00000003  b_load_player                      data_manager
     00000003  b_load_scene                       data_manager
     00000003  b_load_sprite                      data_manager
     00000003  b_scroll_init                      scroll
     00000003  b_scroll_repaint                   scroll
     00000003  b_scroll_reset                     scroll
     00000003  b_scroll_update                    scroll
     00000003  b_shmup_init                       shmup
     00000003  b_shmup_update                     shmup
     00000003  b_vm_choice                        vm_ui
     00000003  b_vm_display_text                  vm_ui
     00000003  b_vm_overlay_clear                 vm_ui
     00000003  b_vm_overlay_move_to               vm_ui
     00000003  b_vm_overlay_scroll                vm_ui
     00000003  b_vm_overlay_set_map               vm_ui
     00000003  b_vm_overlay_set_scroll            vm_ui
     00000003  b_vm_overlay_set_submap            vm_ui
     00000003  b_vm_overlay_set_submap_ex         vm_ui
     00000003  b_vm_overlay_setpos                vm_ui
ASxxxx Linker V03.00 + NoICE + sdld,  page 5.
Hexadecimal  [32-Bits]

Area                                    Addr        Size        Decimal Bytes (Attributes)
--------------------------------        ----        ----        ------- ----- ------------
.  .ABS.                            00000000    00000000 =           0. bytes (ABS,CON)

      Value  Global                              Global Defined In Module
      -----  --------------------------------   ------------------------
     00000003  b_vm_overlay_show                  vm_ui
     00000003  b_vm_overlay_wait                  vm_ui
     00000003  b_vm_set_font                      vm_ui
     00000003  b_vm_set_text_sound                vm_ui
     00000003  b_vm_switch_text_layer             vm_ui
     00000003  l__HEADER8                      
     00000003  l__HEADER_LCD0                  
     00000003  l__HRAM12                       
     00000004  ___bank_VM_GAMEBOY                 vm_gameboy
     00000004  ___bank_bg_character_select_lite   bg_character_select_lite_til
     00000004  ___bank_bg_d11_tileset             bg_d11_tileset
     00000004  ___bank_bg_e12_tileset             bg_e12_tileset
     00000004  ___bank_bg_f10_interior_tileset    bg_f10_interior_tileset
     00000004  ___bank_bg_f10_tileset             bg_f10_tileset
     00000004  ___bank_bg_g10_tileset             bg_g10_tileset
     00000004  ___bank_bg_minimap_tileset         bg_minimap_tileset
     00000004  ___bank_scene_a11_sprites          scene_a11_sprites
     00000004  ___bank_script_reposition_player   script_reposition_player
     00000004  b_projectile_launch                projectiles
     00000004  b_projectiles_init                 projectiles
     00000004  b_topdown_init                     topdown
     00000004  b_topdown_update                   topdown
     00000004  b_vm_context_prepare               vm_gameboy
     00000004  b_vm_fade                          vm_gameboy
     00000004  b_vm_get_tile_xy                   vm_gameboy
     00000004  b_vm_input_attach                  vm_gameboy
     00000004  b_vm_input_detach                  vm_gameboy
     00000004  b_vm_input_get                     vm_gameboy
     00000004  b_vm_input_wait                    vm_gameboy
     00000004  b_vm_load_tiles                    vm_gameboy
     00000004  b_vm_load_tileset                  vm_gameboy
     00000004  b_vm_poll                          vm_gameboy
     00000004  b_vm_replace_tile                  vm_gameboy
     00000004  b_vm_replace_tile_xy               vm_gameboy
     00000004  b_vm_rumble                        vm_gameboy
     00000004  b_vm_set_sprite_mode               vm_gameboy
     00000004  b_vm_set_sprites_visible           vm_gameboy
     00000004  b_vm_timer_prepare                 vm_gameboy
     00000004  b_vm_timer_reset                   vm_gameboy
     00000004  b_vm_timer_set                     vm_gameboy
     00000004  b_vm_timer_stop                    vm_gameboy
     00000004  l__CRASH_HEADER1                
     00000004  l__HEADER_SIO0                  
     00000004  l__HEADER_TIMER0                
     00000005  ___bank_actor_clock_0_update       actor_clock_0_update
     00000005  ___bank_actor_clock_1_update       actor_clock_1_update
     00000005  ___bank_actor_clock_2_update       actor_clock_2_update
     00000005  ___bank_actor_clock_3_update       actor_clock_3_update
     00000005  ___bank_actor_clock_4_update       actor_clock_4_update
     00000005  ___bank_actor_clock_5_update       actor_clock_5_update
     00000005  ___bank_actor_clock_6_update       actor_clock_6_update
ASxxxx Linker V03.00 + NoICE + sdld,  page 6.
Hexadecimal  [32-Bits]

Area                                    Addr        Size        Decimal Bytes (Attributes)
--------------------------------        ----        ----        ------- ----- ------------
.  .ABS.                            00000000    00000000 =           0. bytes (ABS,CON)

      Value  Global                              Global Defined In Module
      -----  --------------------------------   ------------------------
     00000005  ___bank_actor_clock_7_update       actor_clock_7_update
     00000005  ___bank_bg_b_c11_alt_tileset       bg_b_c11_alt_tileset
     00000005  ___bank_bg_b_c11_tileset           bg_b_c11_tileset
     00000005  ___bank_bg_e11_tileset             bg_e11_tileset
     00000005  ___bank_bg_f11_tileset             bg_f11_tileset
     00000005  ___bank_bg_map_template_tileset    bg_map_template_tileset
     00000005  ___bank_song_song_template_1_Dat   song_song_template_1_Data
     00000005  b_core_reset                       core
     00000005  b_core_run                         core
     00000005  b_data_clear                       load_save
     00000005  b_data_init                        load_save
     00000005  b_data_load                        load_save
     00000005  b_data_peek                        load_save
     00000005  b_data_save                        load_save
     00000005  b_gbprinter_detect                 gbprinter
     00000005  b_gbprinter_print_overlay          gbprinter
     00000005  b_trigger_activate_at              trigger
     00000005  b_trigger_activate_at_intersecti   trigger
     00000005  b_trigger_at_intersection          trigger
     00000005  b_trigger_at_tile                  trigger
     00000005  b_trigger_interact                 trigger
     00000005  b_trigger_reset                    trigger
     00000005  l__CRASH_HEADER0                
     00000005  l__HEADER1                      
     00000006  ___bank_VM_CAMERA                  vm_camera
     00000006  ___bank_VM_PALETTE                 vm_palette
     00000006  ___bank_VM_SIO                     vm_sio
     00000006  ___bank_actor_clock_8_update       actor_clock_8_update
     00000006  ___bank_actor_clock_9_update       actor_clock_9_update
     00000006  ___bank_actor_clock_update         actor_clock_update
     00000006  ___bank_bg_a11_tilemap             bg_a11_tilemap
     00000006  ___bank_bg_a11_tilemap_attr        bg_a11_tilemap_attr
     00000006  ___bank_bg_b_c11_alt_tilemap       bg_b_c11_alt_tilemap
     00000006  ___bank_bg_b_c11_alt_tilemap_att   bg_b_c11_alt_tilemap_attr
     00000006  ___bank_bg_b_c11_tilemap           bg_b_c11_tilemap
     00000006  ___bank_bg_d10_tilemap             bg_d10_tilemap
     00000006  ___bank_bg_d10_tileset             bg_d10_tileset
     00000006  ___bank_bg_d11_tilemap             bg_d11_tilemap
     00000006  ___bank_bg_d12_tilemap             bg_d12_tilemap
     00000006  ___bank_bg_d12_tileset             bg_d12_tileset
     00000006  ___bank_bg_e10_tileset             bg_e10_tileset
     00000006  ___bank_bg_lost_to_newport_title   bg_lost_to_newport_titlescr_
     00000006  ___bank_scene_b_c11_alt_collisio   scene_b_c11_alt_collisions
     00000006  ___bank_scene_b_c11_collisions     scene_b_c11_collisions
     00000006  ___bank_sprite_backpacker_shade_   sprite_backpacker_shade_tile
     00000006  b___HandleCrash_banked             
     00000006  b_camera_shake_frames              vm_camera
     00000006  b_fade_applypalettechange          fade_manager
     00000006  b_fade_in                          fade_manager
     00000006  b_fade_in_modal                    fade_manager
     00000006  b_fade_init                        fade_manager
ASxxxx Linker V03.00 + NoICE + sdld,  page 7.
Hexadecimal  [32-Bits]

Area                                    Addr        Size        Decimal Bytes (Attributes)
--------------------------------        ----        ----        ------- ----- ------------
.  .ABS.                            00000000    00000000 =           0. bytes (ABS,CON)

      Value  Global                              Global Defined In Module
      -----  --------------------------------   ------------------------
     00000006  b_fade_out                         fade_manager
     00000006  b_fade_out_modal                   fade_manager
     00000006  b_fade_setspeed                    fade_manager
     00000006  b_fade_update                      fade_manager
     00000006  b_pointnclick_init                 pointnclick
     00000006  b_pointnclick_update               pointnclick
     00000006  b_vm_camera_move_to                vm_camera
     00000006  b_vm_camera_set_pos                vm_camera
     00000006  b_vm_load_palette                  vm_palette
     00000006  b_vm_sio_exchange                  vm_sio
     00000006  b_vm_sio_set_mode                  vm_sio
     00000006  l__HEADER7                      
     00000007  ___bank_actor_4_interact           actor_4_interact
     00000007  ___bank_bg_backpacker_status_til   bg_backpacker_status_tilemap
     00000007  ___bank_bg_backpacker_status_til   bg_backpacker_status_tilemap
     00000007  ___bank_bg_backpacker_status_til   bg_backpacker_status_tileset
     00000007  ___bank_bg_character_select_lite   bg_character_select_lite_til
     00000007  ___bank_bg_character_select_lite   bg_character_select_lite_til
     00000007  ___bank_bg_date_tilemap            bg_date_tilemap
     00000007  ___bank_bg_e10_tilemap             bg_e10_tilemap
     00000007  ___bank_bg_e11_tilemap             bg_e11_tilemap
     00000007  ___bank_bg_e12_tilemap             bg_e12_tilemap
     00000007  ___bank_bg_f10_interior_tilemap    bg_f10_interior_tilemap
     00000007  ___bank_bg_f10_tilemap             bg_f10_tilemap
     00000007  ___bank_bg_f11_tilemap             bg_f11_tilemap
     00000007  ___bank_bg_g10_tilemap             bg_g10_tilemap
     00000007  ___bank_bg_lost_to_newport_title   bg_lost_to_newport_titlescr_
     00000007  ___bank_bg_map_template_tilemap    bg_map_template_tilemap
     00000007  ___bank_bg_minimap_tilemap         bg_minimap_tilemap
     00000007  ___bank_bg_minimap_tilemap_attr    bg_minimap_tilemap_attr
     00000007  ___bank_scene_a11_collisions       scene_a11_collisions
     00000007  ___bank_scene_character_select_c   scene_character_select_colli
     00000007  ___bank_scene_d10_collisions       scene_d10_collisions
     00000007  ___bank_scene_d11_collisions       scene_d11_collisions
     00000007  ___bank_scene_d12_collisions       scene_d12_collisions
     00000007  ___bank_scene_date_collisions      scene_date_collisions
     00000007  ___bank_scene_e10_collisions       scene_e10_collisions
     00000007  ___bank_scene_e11_collisions       scene_e11_collisions
     00000007  ___bank_scene_e12_collisions       scene_e12_collisions
     00000007  ___bank_scene_f10_collisions       scene_f10_collisions
     00000007  ___bank_scene_f10_interior_colli   scene_f10_interior_collision
     00000007  ___bank_scene_f11_collisions       scene_f11_collisions
     00000007  ___bank_scene_g10_collisions       scene_g10_collisions
     00000007  ___bank_scene_minimap_collisions   scene_minimap_collisions
     00000007  ___bank_scene_scene_template_col   scene_scene_template_collisi
     00000007  ___bank_scene_scene_template_spr   scene_scene_template_sprites
     00000007  ___bank_scene_status_collisions    scene_status_collisions
     00000007  ___bank_scene_title_screen_colli   scene_title_screen_collision
     00000007  ___bank_sprite_backpacker_tilese   sprite_backpacker_tileset
     00000007  ___bank_sprite_conspiracy_theori   sprite_conspiracy_theorist_t
     00000007  ___bank_sprite_vagrant_tileset     sprite_vagrant_tileset
ASxxxx Linker V03.00 + NoICE + sdld,  page 8.
Hexadecimal  [32-Bits]

Area                                    Addr        Size        Decimal Bytes (Attributes)
--------------------------------        ----        ----        ------- ----- ------------
.  .ABS.                            00000000    00000000 =           0. bytes (ABS,CON)

      Value  Global                              Global Defined In Module
      -----  --------------------------------   ------------------------
     00000007  ___bank_sprite_witch_tileset       sprite_witch_tileset
     00000007  l__HEADER2                      
     00000008  ___bank_VM_GBPRINTER               vm_gbprinter
     00000008  ___bank_VM_LOAD_SAVE               vm_load_save
     00000008  ___bank_VM_MATH                    vm_math
     00000008  ___bank_VM_MUSIC                   vm_music
     00000008  ___bank_VM_PROJECTILE              vm_projectiles
     00000008  ___bank_VM_RTC                     vm_rtc
     00000008  ___bank_VM_SCENE                   vm_scene
     00000008  ___bank_actor_0_interact           actor_0_interact
     00000008  ___bank_actor_3_interact           actor_3_interact
     00000008  ___bank_actor_6_update             actor_6_update
     00000008  ___bank_actor_cat_interact         actor_cat_interact
     00000008  ___bank_actor_duck_update          actor_duck_update
     00000008  ___bank_actor_health_indicator_0   actor_health_indicator_0_upd
     00000008  ___bank_actor_health_indicator_1   actor_health_indicator_1_upd
     00000008  ___bank_actor_health_indicator_2   actor_health_indicator_2_upd
     00000008  ___bank_actor_health_indicator_3   actor_health_indicator_3_upd
     00000008  ___bank_actor_health_indicator_4   actor_health_indicator_4_upd
     00000008  ___bank_actor_health_indicator_5   actor_health_indicator_5_upd
     00000008  ___bank_actor_health_indicator_6   actor_health_indicator_6_upd
     00000008  ___bank_actor_health_indicator_7   actor_health_indicator_7_upd
     00000008  ___bank_actor_health_indicator_8   actor_health_indicator_8_upd
     00000008  ___bank_actor_health_indicator_9   actor_health_indicator_9_upd
     00000008  ___bank_actor_health_indicator_u   actor_health_indicator_updat
     00000008  ___bank_bg_date_tileset            bg_date_tileset
     00000008  ___bank_emote_shock                emote_shock
     00000008  ___bank_frame_image                frame_image
     00000008  ___bank_palette_0                  palette_0
     00000008  ___bank_palette_1                  palette_1
     00000008  ___bank_palette_2                  palette_2
     00000008  ___bank_scene_a11_init             scene_a11_init
     00000008  ___bank_scene_b_c11                scene_b_c11
     00000008  ___bank_scene_b_c11_alt            scene_b_c11_alt
     00000008  ___bank_scene_character_select     scene_character_select
     00000008  ___bank_scene_character_select_a   scene_character_select_actor
     00000008  ___bank_scene_d10                  scene_d10
     00000008  ___bank_scene_d10_actors           scene_d10_actors
     00000008  ___bank_scene_d11                  scene_d11
     00000008  ___bank_scene_d11_actors           scene_d11_actors
     00000008  ___bank_scene_d11_init             scene_d11_init
     00000008  ___bank_scene_d12                  scene_d12
     00000008  ___bank_scene_d12_actors           scene_d12_actors
     00000008  ___bank_scene_date                 scene_date
     00000008  ___bank_scene_e10                  scene_e10
     00000008  ___bank_scene_e10_actors           scene_e10_actors
     00000008  ___bank_scene_e11                  scene_e11
     00000008  ___bank_scene_e11_actors           scene_e11_actors
     00000008  ___bank_scene_e12                  scene_e12
     00000008  ___bank_scene_e12_actors           scene_e12_actors
     00000008  ___bank_scene_f10                  scene_f10
ASxxxx Linker V03.00 + NoICE + sdld,  page 9.
Hexadecimal  [32-Bits]

Area                                    Addr        Size        Decimal Bytes (Attributes)
--------------------------------        ----        ----        ------- ----- ------------
.  .ABS.                            00000000    00000000 =           0. bytes (ABS,CON)

      Value  Global                              Global Defined In Module
      -----  --------------------------------   ------------------------
     00000008  ___bank_scene_f10_actors           scene_f10_actors
     00000008  ___bank_scene_f10_init             scene_f10_init
     00000008  ___bank_scene_f10_interior         scene_f10_interior
     00000008  ___bank_scene_f10_interior_actor   scene_f10_interior_actors
     00000008  ___bank_scene_f11                  scene_f11
     00000008  ___bank_scene_f11_actors           scene_f11_actors
     00000008  ___bank_scene_g10                  scene_g10
     00000008  ___bank_scene_g10_actors           scene_g10_actors
     00000008  ___bank_scene_minimap              scene_minimap
     00000008  ___bank_scene_minimap_init         scene_minimap_init
     00000008  ___bank_scene_scene_template       scene_scene_template
     00000008  ___bank_scene_scene_template_act   scene_scene_template_actors
     00000008  ___bank_scene_status               scene_status
     00000008  ___bank_scene_status_actors        scene_status_actors
     00000008  ___bank_scene_status_init          scene_status_init
     00000008  ___bank_scene_title_screen         scene_title_screen
     00000008  ___bank_scene_title_screen_init    scene_title_screen_init
     00000008  ___bank_script_engine_init         
     00000008  ___bank_script_record_player_pos   script_record_player_positi
     00000008  ___bank_sprite_backpacker          sprite_backpacker
     00000008  ___bank_sprite_backpacker_face_l   sprite_backpacker_face_ll_ti
     00000008  ___bank_sprite_backpacker_face_l   sprite_backpacker_face_lr_ti
     00000008  ___bank_sprite_backpacker_face_u   sprite_backpacker_face_ul_ti
     00000008  ___bank_sprite_backpacker_face_u   sprite_backpacker_face_ur_ti
     00000008  ___bank_sprite_backpacker_shade    sprite_backpacker_shade
     00000008  ___bank_sprite_board_door_tilese   sprite_board_door_tileset
     00000008  ___bank_sprite_cat                 sprite_cat
     00000008  ___bank_sprite_cat_tileset         sprite_cat_tileset
     00000008  ___bank_sprite_character_select_   sprite_character_select_cur
     00000008  ___bank_sprite_character_select_   sprite_character_select_cur_
     00000008  ___bank_sprite_clock_cursor        sprite_clock_cursor
     00000008  ___bank_sprite_clock_cursor_tile   sprite_clock_cursor_tileset
     00000008  ___bank_sprite_conspiracy_theori   sprite_conspiracy_theorist
     00000008  ___bank_sprite_conspiracy_theori   sprite_conspiracy_theorist__
     00000008  ___bank_sprite_conspiracy_theori   sprite_conspiracy_theorist__
     00000008  ___bank_sprite_conspiracy_theori   sprite_conspiracy_theorist__
     00000008  ___bank_sprite_conspiracy_theori   sprite_conspiracy_theorist__
     00000008  ___bank_sprite_conspiracy_theori   sprite_conspiracy_theorist__
     00000008  ___bank_sprite_conspiracy_theori   sprite_conspiracy_theorist__
     00000008  ___bank_sprite_door                sprite_door
     00000008  ___bank_sprite_door_tileset        sprite_door_tileset
     00000008  ___bank_sprite_duck                sprite_duck
     00000008  ___bank_sprite_duck_tileset        sprite_duck_tileset
     00000008  ___bank_sprite_health1_tileset     sprite_health1_tileset
     00000008  ___bank_sprite_health2_tileset     sprite_health2_tileset
     00000008  ___bank_sprite_health3_tileset     sprite_health3_tileset
     00000008  ___bank_sprite_map_cursor_tilese   sprite_map_cursor_tileset
     00000008  ___bank_sprite_screen_door         sprite_screen_door
     00000008  ___bank_sprite_screen_door_tiles   sprite_screen_door_tileset
     00000008  ___bank_sprite_signpost_tileset    sprite_signpost_tileset
     00000008  ___bank_sprite_trucker             sprite_trucker
ASxxxx Linker V03.00 + NoICE + sdld,  page 10.
Hexadecimal  [32-Bits]

Area                                    Addr        Size        Decimal Bytes (Attributes)
--------------------------------        ----        ----        ------- ----- ------------
.  .ABS.                            00000000    00000000 =           0. bytes (ABS,CON)

      Value  Global                              Global Defined In Module
      -----  --------------------------------   ------------------------
     00000008  ___bank_sprite_trucker_face_ll_t   sprite_trucker_face_ll_tiles
     00000008  ___bank_sprite_trucker_face_lr_t   sprite_trucker_face_lr_tiles
     00000008  ___bank_sprite_trucker_face_ul_t   sprite_trucker_face_ul_tiles
     00000008  ___bank_sprite_trucker_face_ur_t   sprite_trucker_face_ur_tiles
     00000008  ___bank_sprite_trucker_tileset     sprite_trucker_tileset
     00000008  ___bank_sprite_vagrant             sprite_vagrant
     00000008  ___bank_sprite_vagrant_face_ll_t   sprite_vagrant_face_ll_tiles
     00000008  ___bank_sprite_vagrant_face_lr_t   sprite_vagrant_face_lr_tiles
     00000008  ___bank_sprite_vagrant_face_ul_t   sprite_vagrant_face_ul_tiles
     00000008  ___bank_sprite_vagrant_face_ur_t   sprite_vagrant_face_ur_tiles
     00000008  ___bank_sprite_witch               sprite_witch
     00000008  ___bank_sprite_witch_face_ll_til   sprite_witch_face_ll_tileset
     00000008  ___bank_sprite_witch_face_lr_til   sprite_witch_face_lr_tileset
     00000008  ___bank_sprite_witch_face_ul_til   sprite_witch_face_ul_tileset
     00000008  ___bank_sprite_witch_face_ur_til   sprite_witch_face_ur_tileset
     00000008  ___bank_trigger_0_interact         trigger_0_interact
     00000008  ___bank_trigger_10_interact        trigger_10_interact
     00000008  ___bank_trigger_11_interact        trigger_11_interact
     00000008  ___bank_trigger_12_interact        trigger_12_interact
     00000008  ___bank_trigger_13_interact        trigger_13_interact
     00000008  ___bank_trigger_14_interact        trigger_14_interact
     00000008  ___bank_trigger_17_interact        trigger_17_interact
     00000008  ___bank_trigger_1_interact         trigger_1_interact
     00000008  ___bank_trigger_20_interact        trigger_20_interact
     00000008  ___bank_trigger_23_interact        trigger_23_interact
     00000008  ___bank_trigger_24_interact        trigger_24_interact
     00000008  ___bank_trigger_25_interact        trigger_25_interact
     00000008  ___bank_trigger_26_interact        trigger_26_interact
     00000008  ___bank_trigger_27_interact        trigger_27_interact
     00000008  ___bank_trigger_29_interact        trigger_29_interact
     00000008  ___bank_trigger_30_interact        trigger_30_interact
     00000008  ___bank_trigger_31_interact        trigger_31_interact
     00000008  ___bank_trigger_35_interact        trigger_35_interact
     00000008  ___bank_trigger_36_interact        trigger_36_interact
     00000008  ___bank_trigger_40_interact        trigger_40_interact
     00000008  ___bank_trigger_42_interact        trigger_42_interact
     00000008  ___bank_trigger_43_interact        trigger_43_interact
     00000008  ___bank_trigger_4_interact         trigger_4_interact
     00000008  ___bank_trigger_5_interact         trigger_5_interact
     00000008  ___bank_trigger_6_interact         trigger_6_interact
     00000008  ___bank_trigger_7_interact         trigger_7_interact
     00000008  ___bank_trigger_8_interact         trigger_8_interact
     00000008  ___bank_trigger_9_interact         trigger_9_interact
     00000008  ___bank_trigger_east_exit_intera   trigger_east_exit_interact
     00000008  ___bank_trigger_north_exit_inter   trigger_north_exit_interact
     00000008  ___bank_trigger_south_exit_inter   trigger_south_exit_interact
     00000008  ___bank_trigger_west_exit_intera   trigger_west_exit_interact
     00000008  ___mute_mask_sound_legacy_1        sound_legacy_1
     00000008  ___mute_mask_sound_legacy_3        sound_legacy_3
     00000008  b_CGBZeroPalette                   palette
     00000008  b_SGBTransferPalettes              palette
ASxxxx Linker V03.00 + NoICE + sdld,  page 11.
Hexadecimal  [32-Bits]

Area                                    Addr        Size        Decimal Bytes (Attributes)
--------------------------------        ----        ----        ------- ----- ------------
.  .ABS.                            00000000    00000000 =           0. bytes (ABS,CON)

      Value  Global                              Global Defined In Module
      -----  --------------------------------   ------------------------
     00000008  b_erase_flash                      
     00000008  b_events_init                      events
     00000008  b_itoa_fmt                         vm_ui_a
     00000008  b_music_events_poll                music_manager
     00000008  b_music_init_driver                music_manager
     00000008  b_music_init_events                music_manager
     00000008  b_palette_init                     palette
     00000008  b_restore_sram                     flasher
     00000008  b_restore_sram_bank                flasher
     00000008  b_save_sram                        flasher
     00000008  b_save_sram_banks                  
     00000008  b_scroll_rect                      
     00000008  b_timers_init                      events
     00000008  b_vm_cos_scale                     vm_math
     00000008  b_vm_music_mute                    vm_music
     00000008  b_vm_music_play                    vm_music
     00000008  b_vm_music_routine                 vm_music
     00000008  b_vm_music_setpos                  vm_music
     00000008  b_vm_music_stop                    vm_music
     00000008  b_vm_print_detect                  vm_gbprinter
     00000008  b_vm_print_overlay                 vm_gbprinter
     00000008  b_vm_projectile_launch             vm_projectiles
     00000008  b_vm_projectile_load_type          vm_projectiles
     00000008  b_vm_rtc_get                       vm_rtc
     00000008  b_vm_rtc_latch                     vm_rtc
     00000008  b_vm_rtc_set                       vm_rtc
     00000008  b_vm_rtc_start                     vm_rtc
     00000008  b_vm_save_clear                    vm_load_save
     00000008  b_vm_save_peek                     vm_load_save
     00000008  b_vm_scene_pop                     vm_scene
     00000008  b_vm_scene_pop_all                 vm_scene
     00000008  b_vm_scene_push                    vm_scene
     00000008  b_vm_scene_stack_reset             vm_scene
     00000008  b_vm_sfx_play                      vm_music
     00000008  b_vm_sin_scale                     vm_math
     00000008  b_vm_sound_mastervol               vm_music
     00000008  l__HEADER3                      
     00000009  ___bank_actor_1_interact           actor_1_interact
     00000009  ___bank_actor_1_update             actor_1_update
     00000009  ___bank_actor_5_interact           actor_5_interact
     00000009  ___bank_actor_cat_update           actor_cat_update
     00000009  ___bank_actor_door_interact        actor_door_interact
     00000009  ___bank_actor_item_a_0_update      actor_item_a_0_update
     00000009  ___bank_actor_item_a_update        actor_item_a_update
     00000009  ___bank_actor_item_b_0_update      actor_item_b_0_update
     00000009  ___bank_actor_item_b_update        actor_item_b_update
     00000009  ___bank_bg_a11                     bg_a11
     00000009  ___bank_bg_b_c11                   bg_b_c11
     00000009  ___bank_bg_b_c11_alt               bg_b_c11_alt
     00000009  ___bank_bg_backpacker_status       bg_backpacker_status
     00000009  ___bank_bg_character_select_lite   bg_character_select_lite
ASxxxx Linker V03.00 + NoICE + sdld,  page 12.
Hexadecimal  [32-Bits]

Area                                    Addr        Size        Decimal Bytes (Attributes)
--------------------------------        ----        ----        ------- ----- ------------
.  .ABS.                            00000000    00000000 =           0. bytes (ABS,CON)

      Value  Global                              Global Defined In Module
      -----  --------------------------------   ------------------------
     00000009  ___bank_bg_d10                     bg_d10
     00000009  ___bank_bg_d11                     bg_d11
     00000009  ___bank_bg_d12                     bg_d12
     00000009  ___bank_bg_date                    bg_date
     00000009  ___bank_bg_e10                     bg_e10
     00000009  ___bank_bg_e11                     bg_e11
     00000009  ___bank_bg_e12                     bg_e12
     00000009  ___bank_bg_f10                     bg_f10
     00000009  ___bank_bg_f10_interior            bg_f10_interior
     00000009  ___bank_bg_f11                     bg_f11
     00000009  ___bank_bg_g10                     bg_g10
     00000009  ___bank_bg_lost_to_newport_title   bg_lost_to_newport_titlescr
     00000009  ___bank_bg_map_template            bg_map_template
     00000009  ___bank_bg_minimap                 bg_minimap
     00000009  ___bank_bootstrap_script           
     00000009  ___bank_cursor_image               cursor_image
     00000009  ___bank_scene_a11_actors           scene_a11_actors
     00000009  ___bank_scene_a11_triggers         scene_a11_triggers
     00000009  ___bank_scene_b_c11_actors         scene_b_c11_actors
     00000009  ___bank_scene_b_c11_alt_actors     scene_b_c11_alt_actors
     00000009  ___bank_scene_b_c11_alt_init       scene_b_c11_alt_init
     00000009  ___bank_scene_b_c11_alt_sprites    scene_b_c11_alt_sprites
     00000009  ___bank_scene_b_c11_alt_triggers   scene_b_c11_alt_triggers
     00000009  ___bank_scene_b_c11_init           scene_b_c11_init
     00000009  ___bank_scene_b_c11_sprites        scene_b_c11_sprites
     00000009  ___bank_scene_b_c11_triggers       scene_b_c11_triggers
     00000009  ___bank_scene_character_select_i   scene_character_select_init
     00000009  ___bank_scene_character_select_s   scene_character_select_sprit
     00000009  ___bank_scene_d10_init             scene_d10_init
     00000009  ___bank_scene_d10_sprites          scene_d10_sprites
     00000009  ___bank_scene_d10_triggers         scene_d10_triggers
     00000009  ___bank_scene_d11_sprites          scene_d11_sprites
     00000009  ___bank_scene_d11_triggers         scene_d11_triggers
     00000009  ___bank_scene_d12_init             scene_d12_init
     00000009  ___bank_scene_d12_sprites          scene_d12_sprites
     00000009  ___bank_scene_d12_triggers         scene_d12_triggers
     00000009  ___bank_scene_e10_init             scene_e10_init
     00000009  ___bank_scene_e10_sprites          scene_e10_sprites
     00000009  ___bank_scene_e10_triggers         scene_e10_triggers
     00000009  ___bank_scene_e11_init             scene_e11_init
     00000009  ___bank_scene_e11_sprites          scene_e11_sprites
     00000009  ___bank_scene_e11_triggers         scene_e11_triggers
     00000009  ___bank_scene_e12_init             scene_e12_init
     00000009  ___bank_scene_e12_sprites          scene_e12_sprites
     00000009  ___bank_scene_e12_triggers         scene_e12_triggers
     00000009  ___bank_scene_f10_interior_init    scene_f10_interior_init
     00000009  ___bank_scene_f10_interior_sprit   scene_f10_interior_sprites
     00000009  ___bank_scene_f10_interior_trigg   scene_f10_interior_triggers
     00000009  ___bank_scene_f10_sprites          scene_f10_sprites
     00000009  ___bank_scene_f10_triggers         scene_f10_triggers
     00000009  ___bank_scene_f11_init             scene_f11_init
ASxxxx Linker V03.00 + NoICE + sdld,  page 13.
Hexadecimal  [32-Bits]

Area                                    Addr        Size        Decimal Bytes (Attributes)
--------------------------------        ----        ----        ------- ----- ------------
.  .ABS.                            00000000    00000000 =           0. bytes (ABS,CON)

      Value  Global                              Global Defined In Module
      -----  --------------------------------   ------------------------
     00000009  ___bank_scene_f11_sprites          scene_f11_sprites
     00000009  ___bank_scene_f11_triggers         scene_f11_triggers
     00000009  ___bank_scene_g10_init             scene_g10_init
     00000009  ___bank_scene_g10_sprites          scene_g10_sprites
     00000009  ___bank_scene_g10_triggers         scene_g10_triggers
     00000009  ___bank_scene_minimap_actors       scene_minimap_actors
     00000009  ___bank_scene_minimap_sprites      scene_minimap_sprites
     00000009  ___bank_scene_scene_template_ini   scene_scene_template_init
     00000009  ___bank_scene_scene_template_tri   scene_scene_template_trigger
     00000009  ___bank_script_input_0             script_input_0
     00000009  ___bank_sound_legacy_0             sound_legacy_0
     00000009  ___bank_sound_legacy_1             sound_legacy_1
     00000009  ___bank_sound_legacy_2             sound_legacy_2
     00000009  ___bank_sound_legacy_3             sound_legacy_3
     00000009  ___bank_sprite_backpacker_face_l   sprite_backpacker_face_ll
     00000009  ___bank_sprite_backpacker_face_l   sprite_backpacker_face_lr
     00000009  ___bank_sprite_backpacker_face_u   sprite_backpacker_face_ul
     00000009  ___bank_sprite_backpacker_face_u   sprite_backpacker_face_ur
     00000009  ___bank_sprite_board_door          sprite_board_door
     00000009  ___bank_sprite_conspiracy_theori   sprite_conspiracy_theorist_
     00000009  ___bank_sprite_conspiracy_theori   sprite_conspiracy_theorist__
     00000009  ___bank_sprite_conspiracy_theori   sprite_conspiracy_theorist__
     00000009  ___bank_sprite_conspiracy_theori   sprite_conspiracy_theorist__
     00000009  ___bank_sprite_health0             sprite_health0
     00000009  ___bank_sprite_health0_tileset     sprite_health0_tileset
     00000009  ___bank_sprite_health1             sprite_health1
     00000009  ___bank_sprite_health2             sprite_health2
     00000009  ___bank_sprite_health3             sprite_health3
     00000009  ___bank_sprite_health4             sprite_health4
     00000009  ___bank_sprite_health4_tileset     sprite_health4_tileset
     00000009  ___bank_sprite_invisible           sprite_invisible
     00000009  ___bank_sprite_invisible_tileset   sprite_invisible_tileset
     00000009  ___bank_sprite_map_cursor          sprite_map_cursor
     00000009  ___bank_sprite_signpost            sprite_signpost
     00000009  ___bank_sprite_trucker_face_ll     sprite_trucker_face_ll
     00000009  ___bank_sprite_trucker_face_lr     sprite_trucker_face_lr
     00000009  ___bank_sprite_trucker_face_ul     sprite_trucker_face_ul
     00000009  ___bank_sprite_trucker_face_ur     sprite_trucker_face_ur
     00000009  ___bank_sprite_vagrant_face_ll     sprite_vagrant_face_ll
     00000009  ___bank_sprite_vagrant_face_lr     sprite_vagrant_face_lr
     00000009  ___bank_sprite_vagrant_face_ul     sprite_vagrant_face_ul
     00000009  ___bank_sprite_vagrant_face_ur     sprite_vagrant_face_ur
     00000009  ___bank_sprite_witch_face_ll       sprite_witch_face_ll
     00000009  ___bank_sprite_witch_face_lr       sprite_witch_face_lr
     00000009  ___bank_sprite_witch_face_ul       sprite_witch_face_ul
     00000009  ___bank_sprite_witch_face_ur       sprite_witch_face_ur
     00000009  ___bank_spritesheet_none           spritesheet_none
     00000009  ___bank_trigger_2_interact         trigger_2_interact
     00000009  ___bank_trigger_37_interact        trigger_37_interact
     00000009  ___bank_trigger_3_interact         trigger_3_interact
     00000009  b_SIO_init                         sio
ASxxxx Linker V03.00 + NoICE + sdld,  page 14.
Hexadecimal  [32-Bits]

Area                                    Addr        Size        Decimal Bytes (Attributes)
--------------------------------        ----        ----        ------- ----- ------------
.  .ABS.                            00000000    00000000 =           0. bytes (ABS,CON)

      Value  Global                              Global Defined In Module
      -----  --------------------------------   ------------------------
     00000009  b_camera_init                      camera
     00000009  b_camera_reset                     camera
     00000009  b_input_init                       input
     00000009  b_logo_init                        logo
     00000009  b_logo_update                      logo
     00000009  b_parallax_init                    parallax
     00000009  b_remove_LCD_ISRs                  interrupts
     0000000C  __start_save                    
     00000011  l__EHL_TRAMPOLINE0              
     00000019  l__INITIALIZED                  
     00000019  l__INITIALIZER                  
     00000027  l__GSINIT                       
     00000030  l__HEADER6                      
     0000004E  l__HEADER4                      
     00000080  ___size_SGB_border_pal             border
     00000082  l__HEADER10                     
     000001CB  l__CRASH_SCRATCH2               
     00000200  s__CODE                         
     00000700  ___size_SGB_border_map             border
     00000C4E  l__CODE                         
     00000E4E  s__HOME                         
     00000ECD  l__CODE_9                       
     00001280  ___size_SGB_border_chr             border
     0000197F  l__DATA                         
     00002000  _rROMB0                            
     00002CDF  l__HOME                         
     00003000  _rROMB1                            
     00003B2D  s__BASE                         
     00003B2D  s__CODE_0                       
     00003B2D  s__INITIALIZER                  
     00003B2D  s__LIT                          
     00003B46  s__GSINIT                       
     00003B6D  s__GSFINAL                      
     00003FFE  l__CODE_5                       
     00003FFE  l__CODE_6                       
     00003FFF  l__CODE_4                       
     00003FFF  l__CODE_7                       
     00004000  _RTC_SELECT_REG                    vm_rtc
     00004000  _rRAMB                             
     00004000  l__CODE_1                       
     00004000  l__CODE_2                       
     00004000  l__CODE_3                       
     00004000  l__CODE_8                       
     00006000  _RTC_LATCH_REG                     vm_rtc
     00008000  __VRAM                             
     00008000  __VRAM8000                         
     00008800  __VRAM8800                         
     00009000  __VRAM9000                         
     00009800  __SCRN0                            
     00009C00  __SCRN1                            
     0000A000  _RTC_VALUE_REG                     vm_rtc
ASxxxx Linker V03.00 + NoICE + sdld,  page 15.
Hexadecimal  [32-Bits]

Area                                    Addr        Size        Decimal Bytes (Attributes)
--------------------------------        ----        ----        ------- ----- ------------
.  .ABS.                            00000000    00000000 =           0. bytes (ABS,CON)

      Value  Global                              Global Defined In Module
      -----  --------------------------------   ------------------------
     0000A000  __SRAM                             
     0000C000  __RAM                              
     0000C000  _shadow_OAM                     
     0000C0A0  s__DATA                         
     0000D000  __RAMBANK                          
     0000DA1F  s__BSS                          
     0000DA1F  s__INITIALIZED                  
     0000DA38  s__HEAP                         
     0000DF00  .STACK                          
     0000DF00  _shadow_OAM2                       absolute
     0000DFA0  _BkgPalette                        absolute
     0000DFE0  _vwf_tile_data                     absolute
     0000FE00  __OAMRAM                           
     0000FF00  _P1_REG                            
     0000FF00  __IO                               
     0000FF01  _SB_REG                            
     0000FF02  _SC_REG                            
     0000FF04  _DIV_REG                           
     0000FF05  _TIMA_REG                          
     0000FF06  _TMA_REG                           
     0000FF07  _TAC_REG                           
     0000FF0F  _IF_REG                            
     0000FF10  _NR10_REG                          
     0000FF11  _NR11_REG                          
     0000FF12  _NR12_REG                          
     0000FF13  _NR13_REG                          
     0000FF14  _NR14_REG                          
     0000FF16  _NR21_REG                          
     0000FF17  _NR22_REG                          
     0000FF18  _NR23_REG                          
     0000FF19  _NR24_REG                          
     0000FF1A  _NR30_REG                          
     0000FF1B  _NR31_REG                          
     0000FF1C  _NR32_REG                          
     0000FF1D  _NR33_REG                          
     0000FF1E  _NR34_REG                          
     0000FF20  _NR41_REG                          
     0000FF21  _NR42_REG                          
     0000FF22  _NR43_REG                          
     0000FF23  _NR44_REG                          
     0000FF24  _NR50_REG                          
     0000FF25  _NR51_REG                          
     0000FF26  _NR52_REG                          
     0000FF30  _AUD3WAVE                          
     0000FF30  _PCM_SAMPLE                        
     0000FF30  __AUD3WAVERAM                      
     0000FF40  _LCDC_REG                          
     0000FF41  _STAT_REG                          
     0000FF42  _SCY_REG                           
     0000FF43  _SCX_REG                           
     0000FF44  _LY_REG                            
ASxxxx Linker V03.00 + NoICE + sdld,  page 16.
Hexadecimal  [32-Bits]

Area                                    Addr        Size        Decimal Bytes (Attributes)
--------------------------------        ----        ----        ------- ----- ------------
.  .ABS.                            00000000    00000000 =           0. bytes (ABS,CON)

      Value  Global                              Global Defined In Module
      -----  --------------------------------   ------------------------
     0000FF45  _LYC_REG                           
     0000FF46  _DMA_REG                           
     0000FF47  _BGP_REG                           
     0000FF48  _OBP0_REG                          
     0000FF49  _OBP1_REG                          
     0000FF4A  _WY_REG                            
     0000FF4B  _WX_REG                            
     0000FF4D  _KEY1_REG                          
     0000FF4F  _VBK_REG                           
     0000FF51  _HDMA1_REG                         
     0000FF52  _HDMA2_REG                         
     0000FF53  _HDMA3_REG                         
     0000FF54  _HDMA4_REG                         
     0000FF55  _HDMA5_REG                         
     0000FF56  _RP_REG                            
     0000FF68  _BCPS_REG                          
     0000FF69  _BCPD_REG                          
     0000FF6A  _OCPS_REG                          
     0000FF6B  _OCPD_REG                          
     0000FF70  _SVBK_REG                          
     0000FF76  _PCM12_REG                         
     0000FF77  _PCM34_REG                         
     0000FF80  .refresh_OAM                    
     0000FF80  __HRAM                             
     0000FFFF  _IE_REG                            
     00014000  s__CODE_1                       
     00024000  s__CODE_2                       
     00034000  s__CODE_3                       
     00044000  s__CODE_4                       
     00054000  s__CODE_5                       
     00064000  s__CODE_6                       
     00074000  s__CODE_7                       
     00084000  s__CODE_8                       
     00094000  s__CODE_9                       
ASxxxx Linker V03.00 + NoICE + sdld,  page 17.
Hexadecimal  [32-Bits]

Area                                    Addr        Size        Decimal Bytes (Attributes)
--------------------------------        ----        ----        ------- ----- ------------
_CODE                               00000200    00000C4E =        3150. bytes (REL,CON)

      Value  Global                              Global Defined In Module
      -----  --------------------------------   ------------------------
     00000200  ___HandleCrash                     
     0000020A  _SIO_send_byte                     
     0000021D  _SIO_receive                       
     0000022E  _SetTile                           
     0000023D  _set_win_tile_xy                   
     00000242  _set_bkg_tile_xy                   
     00000265  _GetWinAddr                        
     0000026D  _GetBkgAddr                        
     0000027B  _state_init                        
     00000280  _state_update                      
     000002A2  _ui_time_masks                     
     000002AA  _ui_print_shift_char               
     0000032D  _ui_draw_frame_row                 
     00000336  .ui_draw_frame_row                 
     0000035F  _script_cmds                       vm_instructions
     00000593  _save_signature                    game_signature
     00000597  _start_scene_x                     
     00000599  _start_scene_y                     
     0000059B  _start_scene_dir                   
     0000059C  _start_scene                       
     0000059F  _start_player_move_speed           
     000005A0  _start_player_anim_tick            
     000005A1  _ui_fonts                          
     000005A4  _core_reset_hook                   main
     000005AC  _main                              main
     000005B4  _state_start_fns                   
     000005C6  _state_update_fns                  
     000005D8  _hUGE_init_banked                  hUGEDriver_obj
     000005DC  _hUGE_init                         hUGEDriver_obj
     000005E7  _hUGE_mute_channel_banked          hUGEDriver_obj
     000005EB  _hUGE_mute_channel                 hUGEDriver_obj
     000005F8  _hUGE_set_position_banked          hUGEDriver_obj
     000005FC  _hUGE_set_position                 hUGEDriver_obj
     00000605  hUGE_init                          hUGEDriver_obj
     0000065B  hUGE_mute_channel                  hUGEDriver_obj
     00000851  hUGE_set_position                  hUGEDriver_obj
     000009B9  _hUGE_dosound                      hUGEDriver_obj
     000009B9  _hUGE_dosound_banked               hUGEDriver_obj
     000009B9  hUGE_dosound                       hUGEDriver_obj
     00000CA8  _get_vram_byte                     
     00000CB5  _get_win_tile_xy                   
     00000CBD  _get_bkg_tile_xy                   
     00000CE4  _set_sprite_palette                CGB
     00000CE9  _set_bkg_palette                   CGB
     00000CEC  .set_palette                       CGB
     00000D0B  _set_sprite_palette_entry          CGB
     00000D10  _set_bkg_palette_entry             CGB
     00000D13  .set_palette_entry                 CGB
     00000D2F  _hide_sprites_range                Metasprites
     00000D5F  .sgb_check                         
ASxxxx Linker V03.00 + NoICE + sdld,  page 18.
Hexadecimal  [32-Bits]

Area                                    Addr        Size        Decimal Bytes (Attributes)
--------------------------------        ----        ----        ------- ----- ------------
_CODE                               00000200    00000C4E =        3150. bytes (REL,CON)

      Value  Global                              Global Defined In Module
      -----  --------------------------------   ------------------------
     00000D5F  _sgb_check                         
     00000DA7  _sgb_transfer                      
     00000DAC  .sgb_transfer                      
     00000DED  ___move_metasprite                 Metasprites
     00000E2C  _cpu_slow                          CGB
     00000E47  _cpu_fast                          CGB

ASxxxx Linker V03.00 + NoICE + sdld,  page 19.
Hexadecimal  [32-Bits]

Area                                    Addr        Size        Decimal Bytes (Attributes)
--------------------------------        ----        ----        ------- ----- ------------
_HEADER0                            00000000    00000001 =           1. bytes (ABS,CON)

      Value  Global                              Global Defined In Module
      -----  --------------------------------   ------------------------
     00000020  .call_hl                           Runtime

ASxxxx Linker V03.00 + NoICE + sdld,  page 20.
Hexadecimal  [32-Bits]

Area                                    Addr        Size        Decimal Bytes (Attributes)
--------------------------------        ----        ----        ------- ----- ------------
_HEADER1                            00000000    00000005 =           5. bytes (ABS,CON)

      Value  Global                              Global Defined In Module
      -----  --------------------------------   ------------------------
     00000028  .MemsetSmall                       Runtime

ASxxxx Linker V03.00 + NoICE + sdld,  page 21.
Hexadecimal  [32-Bits]

Area                                    Addr        Size        Decimal Bytes (Attributes)
--------------------------------        ----        ----        ------- ----- ------------
_HEADER2                            00000000    00000007 =           7. bytes (ABS,CON)

      Value  Global                              Global Defined In Module
      -----  --------------------------------   ------------------------
     00000030  .MemcpySmall                       Runtime

ASxxxx Linker V03.00 + NoICE + sdld,  page 22.
Hexadecimal  [32-Bits]

Area                                    Addr        Size        Decimal Bytes (Attributes)
--------------------------------        ----        ----        ------- ----- ------------
_HEADER3                            00000000    00000008 =           8. bytes (ABS,CON)

      Value  Global                              Global Defined In Module
      -----  --------------------------------   ------------------------
ASxxxx Linker V03.00 + NoICE + sdld,  page 23.
Hexadecimal  [32-Bits]

Area                                    Addr        Size        Decimal Bytes (Attributes)
--------------------------------        ----        ----        ------- ----- ------------
_HEADER4                            00000000    0000004E =          78. bytes (ABS,CON)

      Value  Global                              Global Defined In Module
      -----  --------------------------------   ------------------------
     00000080  .int                               Runtime
     0000008F  _wait_int_handler                  Runtime
     0000009C  __standard_VBL_handler             Runtime
     000000AC  _refresh_OAM                       Runtime

ASxxxx Linker V03.00 + NoICE + sdld,  page 24.
Hexadecimal  [32-Bits]

Area                                    Addr        Size        Decimal Bytes (Attributes)
--------------------------------        ----        ----        ------- ----- ------------
_HEADER5                            00000000    00000002 =           2. bytes (ABS,CON)

      Value  Global                              Global Defined In Module
      -----  --------------------------------   ------------------------
ASxxxx Linker V03.00 + NoICE + sdld,  page 25.
Hexadecimal  [32-Bits]

Area                                    Addr        Size        Decimal Bytes (Attributes)
--------------------------------        ----        ----        ------- ----- ------------
_HEADER6                            00000000    00000030 =          48. bytes (ABS,CON)

      Value  Global                              Global Defined In Module
      -----  --------------------------------   ------------------------
ASxxxx Linker V03.00 + NoICE + sdld,  page 26.
Hexadecimal  [32-Bits]

Area                                    Addr        Size        Decimal Bytes (Attributes)
--------------------------------        ----        ----        ------- ----- ------------
_HEADER7                            00000000    00000006 =           6. bytes (ABS,CON)

      Value  Global                              Global Defined In Module
      -----  --------------------------------   ------------------------
ASxxxx Linker V03.00 + NoICE + sdld,  page 27.
Hexadecimal  [32-Bits]

Area                                    Addr        Size        Decimal Bytes (Attributes)
--------------------------------        ----        ----        ------- ----- ------------
_HEADER8                            00000000    00000003 =           3. bytes (ABS,CON)

      Value  Global                              Global Defined In Module
      -----  --------------------------------   ------------------------
ASxxxx Linker V03.00 + NoICE + sdld,  page 28.
Hexadecimal  [32-Bits]

Area                                    Addr        Size        Decimal Bytes (Attributes)
--------------------------------        ----        ----        ------- ----- ------------
_HEADER9                            00000000    00000001 =           1. bytes (ABS,CON)

      Value  Global                              Global Defined In Module
      -----  --------------------------------   ------------------------
ASxxxx Linker V03.00 + NoICE + sdld,  page 29.
Hexadecimal  [32-Bits]

Area                                    Addr        Size        Decimal Bytes (Attributes)
--------------------------------        ----        ----        ------- ----- ------------
_HEADERa                            00000000    00000001 =           1. bytes (ABS,CON)

      Value  Global                              Global Defined In Module
      -----  --------------------------------   ------------------------
ASxxxx Linker V03.00 + NoICE + sdld,  page 30.
Hexadecimal  [32-Bits]

Area                                    Addr        Size        Decimal Bytes (Attributes)
--------------------------------        ----        ----        ------- ----- ------------
_HEADERb                            00000000    00000001 =           1. bytes (ABS,CON)

      Value  Global                              Global Defined In Module
      -----  --------------------------------   ------------------------
ASxxxx Linker V03.00 + NoICE + sdld,  page 31.
Hexadecimal  [32-Bits]

Area                                    Addr        Size        Decimal Bytes (Attributes)
--------------------------------        ----        ----        ------- ----- ------------
_HEADERc                            00000000    00000002 =           2. bytes (ABS,CON)

      Value  Global                              Global Defined In Module
      -----  --------------------------------   ------------------------
ASxxxx Linker V03.00 + NoICE + sdld,  page 32.
Hexadecimal  [32-Bits]

Area                                    Addr        Size        Decimal Bytes (Attributes)
--------------------------------        ----        ----        ------- ----- ------------
_HEADERd                            00000000    00000001 =           1. bytes (ABS,CON)

      Value  Global                              Global Defined In Module
      -----  --------------------------------   ------------------------
ASxxxx Linker V03.00 + NoICE + sdld,  page 33.
Hexadecimal  [32-Bits]

Area                                    Addr        Size        Decimal Bytes (Attributes)
--------------------------------        ----        ----        ------- ----- ------------
_HEADERe                            00000000    00000001 =           1. bytes (ABS,CON)

      Value  Global                              Global Defined In Module
      -----  --------------------------------   ------------------------
ASxxxx Linker V03.00 + NoICE + sdld,  page 34.
Hexadecimal  [32-Bits]

Area                                    Addr        Size        Decimal Bytes (Attributes)
--------------------------------        ----        ----        ------- ----- ------------
_HEADERf                            00000000    00000002 =           2. bytes (ABS,CON)

      Value  Global                              Global Defined In Module
      -----  --------------------------------   ------------------------
ASxxxx Linker V03.00 + NoICE + sdld,  page 35.
Hexadecimal  [32-Bits]

Area                                    Addr        Size        Decimal Bytes (Attributes)
--------------------------------        ----        ----        ------- ----- ------------
_HEADER10                           00000000    00000082 =         130. bytes (ABS,CON)

      Value  Global                              Global Defined In Module
      -----  --------------------------------   ------------------------
     00000150  .reset                             Runtime
     00000150  _reset                             Runtime
     00000157  .code_start                        Runtime
     000001B7  _exit                              Runtime
     000001BB  _set_interrupts                    Runtime

ASxxxx Linker V03.00 + NoICE + sdld,  page 36.
Hexadecimal  [32-Bits]

Area                                    Addr        Size        Decimal Bytes (Attributes)
--------------------------------        ----        ----        ------- ----- ------------
_HEADER11                           00000000    00000001 =           1. bytes (ABS,CON)

      Value  Global                              Global Defined In Module
      -----  --------------------------------   ------------------------
ASxxxx Linker V03.00 + NoICE + sdld,  page 37.
Hexadecimal  [32-Bits]

Area                                    Addr        Size        Decimal Bytes (Attributes)
--------------------------------        ----        ----        ------- ----- ------------
_HOME                               00000E4E    00002CDF =       11487. bytes (REL,CON)

      Value  Global                              Global Defined In Module
      -----  --------------------------------   ------------------------
     00000E4E  .memset_simple                     Runtime
     00000E57  .memcpy_simple                     Runtime
     00000E74  .remove_VBL                        Runtime
     00000E77  .remove_int                        Runtime
     00000E94  .add_VBL                           Runtime
     00000E97  .add_int                           Runtime
     00000EA2  .wait_vbl_done                     Runtime
     00000EA2  _wait_vbl_done                     Runtime
     00000EB2  .display_off                       Runtime
     00000EB2  _display_off                       Runtime
     00000ECA  _remove_VBL                        Runtime
     00000ED5  _add_VBL                           Runtime
     00000EE0  _actors_update                     actor
     000012E9  _SetBankedBkgData                  bankdata
     00001305  _SetBankedSpriteData               bankdata
     00001321  _SetBankedBkgTiles                 bankdata
     0000133D  _SetBankedWinTiles                 bankdata
     00001359  _ReadBankedFarPtr                  bankdata
     00001380  _ReadBankedUWORD                   bankdata
     0000139C  _MemcpyBanked                      bankdata
     000013B8  _MemcpyVRAMBanked                  bankdata
     000013D4  _IndexOfFarPtr                     bankdata
     0000146A  _camera_update                     camera
     0000159D  _load_animations                   data_manager
     000015FC  _events_update                     events
     000016CE  _timers_update                     events
     00001756  _input_update                      input
     00001788  .sio_ISR                           
     000017E2  .timer_ISR                         
     000017F7  _simple_LCD_isr                    interrupts
     00001873  _fullscreen_LCD_isr                interrupts
     0000189F  _VBL_isr                           interrupts
     000018E9  _isqrt                             math
     0000193F  _sine_wave                         math
     00001A3F  _dir_lookup                        math
     00001A47  _dir_angle_lookup                  math
     00001A4B  _hUGETrackerRoutine                music_manager
     00001A77  _music_events_update               music_manager
     00001AF9  _music_play_isr                    music_manager
     00001B9F  _parallax_LCD_isr                  parallax
     00001BDC  _projectiles_update                projectiles
     0000207B  _projectiles_render                projectiles
     000021EE  _scroll_load_pending_row           scroll
     0000227A  _scroll_load_row                   scroll
     000022F4  _scroll_load_col                   scroll
     0000235F  _scroll_load_pending_col           scroll
     000023F0  _set_bkg_submap                    
     00002433  _set_xy_win_submap                 
     00002460  .set_xy_win_submap                 
     00002469  .set_xy_bkg_submap                 
ASxxxx Linker V03.00 + NoICE + sdld,  page 38.
Hexadecimal  [32-Bits]

Area                                    Addr        Size        Decimal Bytes (Attributes)
--------------------------------        ----        ----        ------- ----- ------------
_HOME                               00000E4E    00002CDF =       11487. bytes (REL,CON)

      Value  Global                              Global Defined In Module
      -----  --------------------------------   ------------------------
     00002478  .set_xy_submap                     
     000024BE  _sfx_play_isr                      sfx_player
     00002591  _on_SIO_receive                    sio
     000025D2  _SIO_update                        sio
     00002639  _ui_update                         ui
     00002768  _vm_sgb_transfer                   vm_sgb
     000027B6  _vm_load_text                      vm_ui
     00002A0B  _vm_switch                         vm
     00002B0E  _vm_beginthread                    vm
     00002C33  _vm_rpn                            vm
     00003375  _vm_get_far                        vm
     000033DF  _vm_call_native                    vm
     000033F2  _VM_STEP                           vm
     00003460  _script_runner_update              vm
     000035CB  _fill_win_rect                     
     000035DD  _rand                              
     000035DD  _randw                             
     00003608  _initrand                          
     0000360A  .initrand                          
     00003613  _get_bkg_data                      
     00003613  _get_win_data                      
     00003660  _get_sprite_data                   
     00003690  __mulsuchar                        mul
     0000369A  __muluschar                        mul
     000036A4  __mulschar                         mul
     000036B6  __muluchar                         mul
     000036C2  __mulint                           mul
     000036E8  _abs                               abs
     000036F7  _set_win_tiles                     
     0000370B  _set_tile_data                     
     00003710  _set_bkg_data                      
     00003710  _set_win_data                      
     00003718  _set_sprite_data                   
     00003748  _reverse                           reverse
     0000377C  ___call__banked                    far_ptr
     00003799  _to_far_ptr                        far_ptr
     000037D2  _add_LCD                           
     000037DD  .add_LCD                           
     000037E3  _remove_LCD                        
     000037EE  .remove_LCD                        
     000037F4  .fill_rect_wtt                     
     000037FD  .fill_rect_btt                     
     0000384A  _joypad_init                       
     00003898  _joypad_ex                         
     0000389D  .joypad_ex                         
     000038E8  .copy_vram                         
     000038FC  _get_data                          
     000038FC  _set_data                          
     000038FC  _vmemcpy                           
     0000390F  _fill_bkg_rect                     
     00003921  ___sdcc_call_hl                    call_hl
ASxxxx Linker V03.00 + NoICE + sdld,  page 39.
Hexadecimal  [32-Bits]

Area                                    Addr        Size        Decimal Bytes (Attributes)
--------------------------------        ----        ----        ------- ----- ------------
_HOME                               00000E4E    00002CDF =       11487. bytes (REL,CON)

      Value  Global                              Global Defined In Module
      -----  --------------------------------   ------------------------
     00003922  ___memcpy                          memcpy
     00003922  _memcpy                            memcpy
     00003965  _memset                            memset
     00003998  .set_xy_wtt                        SetTileMap
     000039A1  .set_xy_btt                        SetTileMap
     000039B0  .set_xy_tt                         SetTileMap
     000039F2  __divsuchar                        div
     000039FF  __modsuchar                        div
     00003A09  __divuschar                        div
     00003A1B  __moduschar                        div
     00003A2B  __divschar                         div
     00003A37  __modschar                         div
     00003A41  __divsint                          div
     00003A52  __modsint                          div
     00003A61  __divuchar                         div
     00003A6D  __moduchar                         div
     00003A77  __divuint                          div
     00003A88  __moduint                          div
     00003A97  .div8                              div
     00003A97  .mod8                              div
     00003A9F  .div16                             div
     00003A9F  .mod16                             div
     00003AD5  .divu8                             div
     00003AD5  .modu8                             div
     00003AD8  .divu16                            div
     00003AD8  .modu16                            div
     00003B19  _set_bkg_tiles                     

ASxxxx Linker V03.00 + NoICE + sdld,  page 40.
Hexadecimal  [32-Bits]

Area                                    Addr        Size        Decimal Bytes (Attributes)
--------------------------------        ----        ----        ------- ----- ------------
_INITIALIZER                        00003B2D    00000019 =          25. bytes (REL,CON)

      Value  Global                              Global Defined In Module
      -----  --------------------------------   ------------------------
ASxxxx Linker V03.00 + NoICE + sdld,  page 41.
Hexadecimal  [32-Bits]

Area                                    Addr        Size        Decimal Bytes (Attributes)
--------------------------------        ----        ----        ------- ----- ------------
_GSINIT                             00003B46    00000027 =          39. bytes (REL,CON)

      Value  Global                              Global Defined In Module
      -----  --------------------------------   ------------------------
     00003B46  gsinit                             Runtime

ASxxxx Linker V03.00 + NoICE + sdld,  page 42.
Hexadecimal  [32-Bits]

Area                                    Addr        Size        Decimal Bytes (Attributes)
--------------------------------        ----        ----        ------- ----- ------------
_GSFINAL                            00003B6D    00000001 =           1. bytes (REL,CON)

      Value  Global                              Global Defined In Module
      -----  --------------------------------   ------------------------
ASxxxx Linker V03.00 + NoICE + sdld,  page 43.
Hexadecimal  [32-Bits]

Area                                    Addr        Size        Decimal Bytes (Attributes)
--------------------------------        ----        ----        ------- ----- ------------
_DATA                               0000C0A0    0000197F =        6527. bytes (REL,CON)

      Value  Global                              Global Defined In Module
      -----  --------------------------------   ------------------------
     0000C0A0  __cpu                              Runtime
     0000C0A1  __is_GBA                           Runtime
     0000C0A2  .mode                              Runtime
     0000C0A3  .sys_time                          Runtime
     0000C0A3  _sys_time                          Runtime
     0000C0A5  .int_0x40                          Runtime
     0000C0B9  _actors                            actor
     0000C4FD  _actors_active_head                actor
     0000C4FF  _actors_active_tail                actor
     0000C501  _actors_inactive_head              actor
     0000C503  _screen_x                          actor
     0000C504  _screen_y                          actor
     0000C505  _invalid                           actor
     0000C507  _player_moving                     actor
     0000C508  _player_iframes                    actor
     0000C509  _player_collision_actor            actor
     0000C50B  _emote_actor                       actor
     0000C50D  _emote_timer                       actor
     0000C50E  _allocated_hardware_sprites        actor
     0000C51A  _camera_x                          camera
     0000C51C  _camera_y                          camera
     0000C51E  _camera_offset_x                   camera
     0000C51F  _camera_offset_y                   camera
     0000C520  _camera_deadzone_x                 camera
     0000C521  _camera_deadzone_y                 camera
     0000C522  _camera_settings                   camera
     0000C526  _current_scene                     data_manager
     0000C529  _image_bank                        data_manager
     0000C52A  _image_ptr                         data_manager
     0000C52C  _image_attr_bank                   data_manager
     0000C52D  _image_attr_ptr                    data_manager
     0000C52F  _collision_bank                    data_manager
     0000C530  _collision_ptr                     data_manager
     0000C532  _image_tile_width                  data_manager
     0000C533  _image_tile_height                 data_manager
     0000C534  _image_width                       data_manager
     0000C536  _image_height                      data_manager
     0000C538  _sprites_len                       data_manager
     0000C539  _actors_len                        data_manager
     0000C53A  _projectiles_len                   data_manager
     0000C53B  _player_sprite_len                 data_manager
     0000C53C  _scene_type                        data_manager
     0000C53D  _scene_LCD_type                    data_manager
     0000C53E  _scene_stack                       data_manager
     0000C57E  _scene_stack_ptr                   data_manager
     0000C580  _scene_sprites_base_tiles          data_manager
     0000C5C0  _input_events                      events
     0000C5E8  _input_slots                       events
     0000C5F0  _timer_events                      events
     0000C604  _timer_values                      events
ASxxxx Linker V03.00 + NoICE + sdld,  page 44.
Hexadecimal  [32-Bits]

Area                                    Addr        Size        Decimal Bytes (Attributes)
--------------------------------        ----        ----        ------- ----- ------------
_DATA                               0000C0A0    0000197F =        6527. bytes (REL,CON)

      Value  Global                              Global Defined In Module
      -----  --------------------------------   ------------------------
     0000C60C  _fade_running                      fade_manager
     0000C60D  _fade_frames_per_step              fade_manager
     0000C60E  _fade_timer                        fade_manager
     0000C616  _joypads                           input
     0000C61B  _frame_joy                         input
     0000C61C  _last_joy                          input
     0000C61D  _recent_joy                        input
     0000C61E  _SIO_status                        
     0000C61F  _link_byte_sent                    
     0000C620  _link_next_mode                    
     0000C621  _save_blob_size                    load_save
     0000C623  _routine_queue                     music_manager
     0000C627  _routine_queue_head                music_manager
     0000C628  _routine_queue_tail                music_manager
     0000C629  _music_events                      music_manager
     0000C63D  _music_current_track_bank          music_manager
     0000C63E  _music_mute_flag                   music_manager
     0000C63F  _music_mute_mask                   music_manager
     0000C640  _music_next_track                  music_manager
     0000C642  _music_current_track               music_manager
     0000C644  _music_play_isr_counter            music_manager
     0000C645  _music_play_isr_pause              music_manager
     0000C646  _music_global_mute_mask            music_manager
     0000C647  _music_sfx_priority                music_manager
     0000C648  _DMG_palette                       palette
     0000C64B  _SprPalette                        palette
     0000C68B  _parallax_rows                     parallax
     0000C69D  _parallax_row                      parallax
     0000C69F  _projectiles                       projectiles
     0000C758  _projectile_defs                   projectiles
     0000C7CB  _projectiles_active_head           projectiles
     0000C7CD  _projectiles_inactive_head         projectiles
     0000C7D4  _scroll_x                          scroll
     0000C7D6  _scroll_y                          scroll
     0000C7D8  _draw_scroll_x                     scroll
     0000C7DA  _draw_scroll_y                     scroll
     0000C7DC  _scroll_x_max                      scroll
     0000C7DE  _scroll_y_max                      scroll
     0000C7E0  _scroll_offset_x                   scroll
     0000C7E1  _scroll_offset_y                   scroll
     0000C7E2  _pending_h_x                       scroll
     0000C7E3  _pending_h_y                       scroll
     0000C7E4  _pending_h_i                       scroll
     0000C7E5  _pending_w_x                       scroll
     0000C7E6  _pending_w_y                       scroll
     0000C7E7  _pending_w_i                       scroll
     0000C7E8  _current_row                       scroll
     0000C7EA  _new_row                           scroll
     0000C7EC  _current_col                       scroll
     0000C7EE  _new_col                           scroll
     0000C7F0  .image_tile_width                  
ASxxxx Linker V03.00 + NoICE + sdld,  page 45.
Hexadecimal  [32-Bits]

Area                                    Addr        Size        Decimal Bytes (Attributes)
--------------------------------        ----        ----        ------- ----- ------------
_DATA                               0000C0A0    0000197F =        6527. bytes (REL,CON)

      Value  Global                              Global Defined In Module
      -----  --------------------------------   ------------------------
     0000C7F1  _sfx_play_bank                     sfx_player
     0000C7F2  _sfx_play_sample                   sfx_player
     0000C7F4  _sfx_frame_skip                    sfx_player
     0000C7F5  _link_operation_mode               sio
     0000C7F6  _link_packet                       sio
     0000C816  _link_packet_len                   sio
     0000C817  _link_packet_ptr                   sio
     0000C819  _link_packet_received              sio
     0000C81A  _link_packet_snd_len               sio
     0000C81B  _link_packet_snd_ptr               sio
     0000C81D  _link_packet_sent                  sio
     0000C81E  __is_CGB                           system
     0000C81F  __is_SGB                           system
     0000C820  __current_ram_bank                 system
     0000C821  _triggers                          trigger
     0000C919  _last_trigger_tx                   trigger
     0000C91A  _last_trigger_ty                   trigger
     0000C91B  _last_trigger                      trigger
     0000C91C  _win_pos_x                         ui
     0000C91D  _win_dest_pos_x                    ui
     0000C91E  _win_pos_y                         ui
     0000C91F  _win_dest_pos_y                    ui
     0000C920  _win_speed                         ui
     0000C921  _text_drawn                        ui
     0000C922  _current_text_speed                ui
     0000C923  _text_wait                         ui
     0000C924  _text_options                      ui
     0000C925  _text_in_speed                     ui
     0000C926  _text_out_speed                    ui
     0000C927  _text_draw_speed                   ui
     0000C928  _text_ff_joypad                    ui
     0000C929  _text_ff                           ui
     0000C92A  _text_bkg_fill                     ui
     0000C92B  _ui_text_data                      ui
     0000CA35  _vwf_current_mask                  ui
     0000CA36  _vwf_current_rotate                ui
     0000CA37  _vwf_inverse_map                   ui
     0000CA38  _vwf_direction                     ui
     0000CA39  _vwf_current_font_desc             ui
     0000CA41  _vwf_current_font_bank             ui
     0000CA42  _vwf_current_font_idx              ui
     0000CA43  _text_render_base_addr             ui
     0000CA45  _text_scroll_addr                  ui
     0000CA47  _text_scroll_width                 ui
     0000CA48  _text_scroll_height                ui
     0000CA49  _text_scroll_fill                  ui
     0000CA4A  _text_sound_mask                   ui
     0000CA4B  _text_sound_bank                   ui
     0000CA4C  _text_sound_data                   ui
     0000CA4E  _overlay_priority                  ui
     0000CA55  __itoa_fmt_len                     vm_ui_a
ASxxxx Linker V03.00 + NoICE + sdld,  page 46.
Hexadecimal  [32-Bits]

Area                                    Addr        Size        Decimal Bytes (Attributes)
--------------------------------        ----        ----        ------- ----- ------------
_DATA                               0000C0A0    0000197F =        6527. bytes (REL,CON)

      Value  Global                              Global Defined In Module
      -----  --------------------------------   ------------------------
     0000CA56  .itoa_fmt_buf                      vm_ui_a
     0000CA59  _CTXS                              vm
     0000CB89  _first_ctx                         vm
     0000CB8B  _free_ctxs                         vm
     0000CB8D  _old_executing_ctx                 vm
     0000CB8F  _executing_ctx                     vm
     0000CB91  _vm_lock_state                     vm
     0000CB92  _vm_loaded_state                   vm
     0000CB93  _vm_exception_code                 vm
     0000CB94  _vm_exception_params_length        vm
     0000CB95  _vm_exception_params_bank          vm
     0000CB96  _vm_exception_params_offset        vm
     0000CB99  _script_memory                     vm
     0000D99F  _grounded                          platform
     0000D9A0  _on_ladder                         platform
     0000D9A1  _pl_vel_x                          platform
     0000D9A3  _pl_vel_y                          platform
     0000D9A5  _plat_min_vel                      platform
     0000D9A7  _plat_walk_vel                     platform
     0000D9A9  _plat_climb_vel                    platform
     0000D9AB  _plat_run_vel                      platform
     0000D9AD  _plat_walk_acc                     platform
     0000D9AF  _plat_run_acc                      platform
     0000D9B1  _plat_dec                          platform
     0000D9B3  _plat_jump_vel                     platform
     0000D9B5  _plat_grav                         platform
     0000D9B7  _plat_hold_grav                    platform
     0000D9B9  _plat_max_fall_vel                 platform
     0000D9BB  _shooter_reached_end               shmup
     0000D9BC  _shooter_dest                      shmup
     0000D9BE  _shooter_direction                 shmup
     0000D9BF  _topdown_grid                      topdown
     0000D9C0  ___rand_seed                       
     0000D9DE  _hUGE_current_wave                 hUGEDriver_obj
     0000D9DE  hUGE_current_wave                  hUGEDriver_obj
     0000D9DF  _hUGE_mute_mask                    hUGEDriver_obj
     0000DA08  ___call_banked_addr                far_ptr
     0000DA08  ___call_banked_ptr                 far_ptr
     0000DA0A  ___call_banked_bank                far_ptr
     0000DA0C  .int_0x48                          
     0000DA1C  ___current_metasprite              Metasprites
     0000DA1E  ___current_base_tile               Metasprites

ASxxxx Linker V03.00 + NoICE + sdld,  page 47.
Hexadecimal  [32-Bits]

Area                                    Addr        Size        Decimal Bytes (Attributes)
--------------------------------        ----        ----        ------- ----- ------------
_INITIALIZED                        0000DA1F    00000019 =          25. bytes (REL,CON)

      Value  Global                              Global Defined In Module
      -----  --------------------------------   ------------------------
     0000DA1F  _fade_style                        fade_manager
     0000DA20  _game_time                         game_time
     0000DA21  _PRN_PKT_START                     gbprinter
     0000DA2F  _hide_sprites                      interrupts
     0000DA30  _show_actors_on_overlay            interrupts
     0000DA31  _overlay_cut_scanline              interrupts
     0000DA32  _triggers_len                      trigger
     0000DA33  _exchange_state                    vm_sio
     0000DA34  _last_hit_trigger                  pointnclick
     0000DA35  _shooter_scroll_speed              shmup
     0000DA36  ___render_shadow_OAM               Metasprites
     0000DA37  __map_tile_offset                  SetTileMap
ASxxxx Linker V03.00 + NoICE + sdld,  page 48.
Hexadecimal  [32-Bits]

Area                                    Addr        Size        Decimal Bytes (Attributes)
--------------------------------        ----        ----        ------- ----- ------------
_HRAM12                             00000000    00000003 =           3. bytes (ABS,CON)

      Value  Global                              Global Defined In Module
      -----  --------------------------------   ------------------------
     0000FF90  __current_bank                     Runtime
     0000FF92  __shadow_OAM_base                  Runtime

ASxxxx Linker V03.00 + NoICE + sdld,  page 49.
Hexadecimal  [32-Bits]

Area                                    Addr        Size        Decimal Bytes (Attributes)
--------------------------------        ----        ----        ------- ----- ------------
_EHL_TRAMPOLINE0                    00000000    00000011 =          17. bytes (ABS,CON)

      Value  Global                              Global Defined In Module
      -----  --------------------------------   ------------------------
     00000008  ___sdcc_bcall_ehl                  

ASxxxx Linker V03.00 + NoICE + sdld,  page 50.
Hexadecimal  [32-Bits]

Area                                    Addr        Size        Decimal Bytes (Attributes)
--------------------------------        ----        ----        ------- ----- ------------
_CODE_1                             00014000    00004000 =       16384. bytes (REL,CON)

      Value  Global                              Global Defined In Module
      -----  --------------------------------   ------------------------
     00014000  ___func_ACTOR                      actor
     00014000  _actors_init                       actor
     0001403A  _emote_offsets                     actor
     00014049  _emote_metasprite                  actor
     00014055  _player_init                       actor
     0001406A  _deactivate_actor                  actor
     000141DB  _activate_actor                    actor
     0001431A  _activate_actors_in_row            actor
     00014411  _activate_actors_in_col            actor
     00014562  _actor_set_frames                  actor
     000145B6  _actor_set_frame_offset            actor
     000145F3  _actor_get_frame_offset            actor
     00014606  _actor_set_anim_idle               actor
     00014634  _actor_set_anim_moving             actor
     00014665  _actor_set_dir                     actor
     000146CA  _actor_at_tile                     actor
     000147A0  _actor_in_front_of_player          actor
     00014887  _actor_overlapping_player          actor
     00014B20  _actor_overlapping_bb              actor
     00014D3F  _actors_handle_player_collision    actor
     00014DCA  _check_collision_in_direction      actor
     000155BA  _set_sgb_border                    sgb_border
     000157EB  _ui_swap_tiles                     
     00015835  _ui_print_make_mask_lr             
     00015851  _ui_print_make_mask_rl             
     0001586D  _ui_init                           ui
     0001593C  _ui_load_tiles                     ui
     00015993  _ui_draw_frame                     ui
     00015A27  _ui_print_reset                    ui
     00015A7D  _ui_set_start_tile                 ui
     00015AA9  _ui_print_render                   ui
     00015D4A  _ui_draw_text_buffer_char          ui
     0001623E  _ui_run_menu                       ui
     000164FC  _ui_run_modal                      ui
     000165CB  ___func_VM_SGB                     vm_sgb
     000165CB  _actor_2_interact                  actor_2_interact
     00016600  _SGB_border_chr                    border
     00016600  ___func_SGB_border_chr             border
     00016600  ___func_SGB_border_map             border
     00016600  ___func_SGB_border_pal             border
     00017880  _SGB_border_map                    border
     00017F80  _SGB_border_pal                    border
ASxxxx Linker V03.00 + NoICE + sdld,  page 51.
Hexadecimal  [32-Bits]

Area                                    Addr        Size        Decimal Bytes (Attributes)
--------------------------------        ----        ----        ------- ----- ------------
_CODE_9                             00094000    00000ECD =        3789. bytes (REL,CON)

      Value  Global                              Global Defined In Module
      -----  --------------------------------   ------------------------
     00094000  _bootstrap_script                  
     0009400B  _camera_init                       camera
     00094029  _camera_reset                      camera
     00094039  _input_init                        input
     00094064  _remove_LCD_ISRs                   interrupts
     00094085  _parallax_init                     parallax
     000940A9  _SIO_init                          sio
     000940D2  _actor_1_interact                  actor_1_interact
     000940F1  _actor_1_update                    actor_1_update
     00094129  _actor_5_interact                  actor_5_interact
     0009414D  _actor_cat_update                  actor_cat_update
     0009417F  _actor_door_interact               actor_door_interact
     000941AA  _actor_item_a_0_update             actor_item_a_0_update
     000941BB  _actor_item_a_update               actor_item_a_update
     000941CC  _actor_item_b_0_update             actor_item_b_0_update
     000941DD  _actor_item_b_update               actor_item_b_update
     000941EE  ___func_bg_a11                     bg_a11
     000941EE  _bg_a11                            bg_a11
     000941FC  ___func_bg_b_c11_alt               bg_b_c11_alt
     000941FC  _bg_b_c11_alt                      bg_b_c11_alt
     0009420A  ___func_bg_b_c11                   bg_b_c11
     0009420A  _bg_b_c11                          bg_b_c11
     00094218  ___func_bg_backpacker_status       bg_backpacker_status
     00094218  _bg_backpacker_status              bg_backpacker_status
     00094226  ___func_bg_character_select_lite   bg_character_select_lite
     00094226  _bg_character_select_lite          bg_character_select_lite
     00094234  ___func_bg_d10                     bg_d10
     00094234  _bg_d10                            bg_d10
     00094242  ___func_bg_d11                     bg_d11
     00094242  _bg_d11                            bg_d11
     00094250  ___func_bg_d12                     bg_d12
     00094250  _bg_d12                            bg_d12
     0009425E  ___func_bg_date                    bg_date
     0009425E  _bg_date                           bg_date
     0009426C  ___func_bg_e10                     bg_e10
     0009426C  _bg_e10                            bg_e10
     0009427A  ___func_bg_e11                     bg_e11
     0009427A  _bg_e11                            bg_e11
     00094288  ___func_bg_e12                     bg_e12
     00094288  _bg_e12                            bg_e12
     00094296  ___func_bg_f10_interior            bg_f10_interior
     00094296  _bg_f10_interior                   bg_f10_interior
     000942A4  ___func_bg_f10                     bg_f10
     000942A4  _bg_f10                            bg_f10
     000942B2  ___func_bg_f11                     bg_f11
     000942B2  _bg_f11                            bg_f11
     000942C0  ___func_bg_g10                     bg_g10
     000942C0  _bg_g10                            bg_g10
     000942CE  ___func_bg_lost_to_newport_title   bg_lost_to_newport_titlescr
     000942CE  _bg_lost_to_newport_titlescr       bg_lost_to_newport_titlescr
ASxxxx Linker V03.00 + NoICE + sdld,  page 52.
Hexadecimal  [32-Bits]

Area                                    Addr        Size        Decimal Bytes (Attributes)
--------------------------------        ----        ----        ------- ----- ------------
_CODE_9                             00094000    00000ECD =        3789. bytes (REL,CON)

      Value  Global                              Global Defined In Module
      -----  --------------------------------   ------------------------
     000942DC  ___func_bg_map_template            bg_map_template
     000942DC  _bg_map_template                   bg_map_template
     000942EA  ___func_bg_minimap                 bg_minimap
     000942EA  _bg_minimap                        bg_minimap
     000942F8  ___func_cursor_image               cursor_image
     000942F8  _cursor_image                      cursor_image
     00094308  ___func_scene_a11_actors           scene_a11_actors
     00094308  _scene_a11_actors                  scene_a11_actors
     0009433C  ___func_scene_a11_triggers         scene_a11_triggers
     0009433C  _scene_a11_triggers                scene_a11_triggers
     0009435C  ___func_scene_b_c11_actors         scene_b_c11_actors
     0009435C  _scene_b_c11_actors                scene_b_c11_actors
     00094390  ___func_scene_b_c11_alt_actors     scene_b_c11_alt_actors
     00094390  _scene_b_c11_alt_actors            scene_b_c11_alt_actors
     000943C4  _scene_b_c11_alt_init              scene_b_c11_alt_init
     000943DA  ___func_scene_b_c11_alt_sprites    scene_b_c11_alt_sprites
     000943DA  _scene_b_c11_alt_sprites           scene_b_c11_alt_sprites
     000943DD  ___func_scene_b_c11_alt_triggers   scene_b_c11_alt_triggers
     000943DD  _scene_b_c11_alt_triggers          scene_b_c11_alt_triggers
     000943E5  _scene_b_c11_init                  scene_b_c11_init
     0009440F  ___func_scene_b_c11_sprites        scene_b_c11_sprites
     0009440F  _scene_b_c11_sprites               scene_b_c11_sprites
     00094412  ___func_scene_b_c11_triggers       scene_b_c11_triggers
     00094412  _scene_b_c11_triggers              scene_b_c11_triggers
     00094432  _scene_character_select_init       scene_character_select_init
     00094455  ___func_scene_character_select_s   scene_character_select_sprit
     00094455  _scene_character_select_sprites    scene_character_select_sprit
     00094458  _scene_d10_init                    scene_d10_init
     00094488  ___func_scene_d10_sprites          scene_d10_sprites
     00094488  _scene_d10_sprites                 scene_d10_sprites
     0009448E  ___func_scene_d10_triggers         scene_d10_triggers
     0009448E  _scene_d10_triggers                scene_d10_triggers
     000944AE  ___func_scene_d11_sprites          scene_d11_sprites
     000944AE  _scene_d11_sprites                 scene_d11_sprites
     000944B1  ___func_scene_d11_triggers         scene_d11_triggers
     000944B1  _scene_d11_triggers                scene_d11_triggers
     000944D1  _scene_d12_init                    scene_d12_init
     00094501  ___func_scene_d12_sprites          scene_d12_sprites
     00094501  _scene_d12_sprites                 scene_d12_sprites
     00094504  ___func_scene_d12_triggers         scene_d12_triggers
     00094504  _scene_d12_triggers                scene_d12_triggers
     00094524  _scene_e10_init                    scene_e10_init
     00094554  ___func_scene_e10_sprites          scene_e10_sprites
     00094554  _scene_e10_sprites                 scene_e10_sprites
     00094557  ___func_scene_e10_triggers         scene_e10_triggers
     00094557  _scene_e10_triggers                scene_e10_triggers
     00094577  _scene_e11_init                    scene_e11_init
     000945A7  ___func_scene_e11_sprites          scene_e11_sprites
     000945A7  _scene_e11_sprites                 scene_e11_sprites
     000945AD  ___func_scene_e11_triggers         scene_e11_triggers
     000945AD  _scene_e11_triggers                scene_e11_triggers
ASxxxx Linker V03.00 + NoICE + sdld,  page 53.
Hexadecimal  [32-Bits]

Area                                    Addr        Size        Decimal Bytes (Attributes)
--------------------------------        ----        ----        ------- ----- ------------
_CODE_9                             00094000    00000ECD =        3789. bytes (REL,CON)

      Value  Global                              Global Defined In Module
      -----  --------------------------------   ------------------------
     000945CD  _scene_e12_init                    scene_e12_init
     000945FD  ___func_scene_e12_sprites          scene_e12_sprites
     000945FD  _scene_e12_sprites                 scene_e12_sprites
     00094603  ___func_scene_e12_triggers         scene_e12_triggers
     00094603  _scene_e12_triggers                scene_e12_triggers
     00094623  _scene_f10_interior_init           scene_f10_interior_init
     00094646  ___func_scene_f10_interior_sprit   scene_f10_interior_sprites
     00094646  _scene_f10_interior_sprites        scene_f10_interior_sprites
     0009464C  ___func_scene_f10_interior_trigg   scene_f10_interior_triggers
     0009464C  _scene_f10_interior_triggers       scene_f10_interior_triggers
     00094654  ___func_scene_f10_sprites          scene_f10_sprites
     00094654  _scene_f10_sprites                 scene_f10_sprites
     0009465A  ___func_scene_f10_triggers         scene_f10_triggers
     0009465A  _scene_f10_triggers                scene_f10_triggers
     0009467A  _scene_f11_init                    scene_f11_init
     000946AA  ___func_scene_f11_sprites          scene_f11_sprites
     000946AA  _scene_f11_sprites                 scene_f11_sprites
     000946AD  ___func_scene_f11_triggers         scene_f11_triggers
     000946AD  _scene_f11_triggers                scene_f11_triggers
     000946CD  _scene_g10_init                    scene_g10_init
     000946FD  ___func_scene_g10_sprites          scene_g10_sprites
     000946FD  _scene_g10_sprites                 scene_g10_sprites
     00094703  ___func_scene_g10_triggers         scene_g10_triggers
     00094703  _scene_g10_triggers                scene_g10_triggers
     00094723  ___func_scene_minimap_actors       scene_minimap_actors
     00094723  _scene_minimap_actors              scene_minimap_actors
     00094757  ___func_scene_minimap_sprites      scene_minimap_sprites
     00094757  _scene_minimap_sprites             scene_minimap_sprites
     0009475A  _scene_scene_template_init         scene_scene_template_init
     0009478F  ___func_scene_scene_template_tri   scene_scene_template_trigger
     0009478F  _scene_scene_template_triggers     scene_scene_template_trigger
     000947AF  _script_input_0                    script_input_0
     000947E7  ___func_sound_legacy_0             sound_legacy_0
     000947E7  _sound_legacy_0                    sound_legacy_0
     00094811  ___func_sound_legacy_1             sound_legacy_1
     00094811  _sound_legacy_1                    sound_legacy_1
     00094824  ___func_sound_legacy_2             sound_legacy_2
     00094824  _sound_legacy_2                    sound_legacy_2
     0009484E  ___func_sound_legacy_3             sound_legacy_3
     0009484E  _sound_legacy_3                    sound_legacy_3
     0009485E  ___func_sprite_backpacker_face_l   sprite_backpacker_face_ll
     0009485E  _sprite_backpacker_face_ll_metas   sprite_backpacker_face_ll
     0009486A  _sprite_backpacker_face_ll_metas   sprite_backpacker_face_ll
     0009486C  _sprite_backpacker_face_ll_anima   sprite_backpacker_face_ll
     0009487C  _sprite_backpacker_face_ll_anima   sprite_backpacker_face_ll
     0009487E  _sprite_backpacker_face_ll         sprite_backpacker_face_ll
     00094891  ___func_sprite_backpacker_face_l   sprite_backpacker_face_lr
     00094891  _sprite_backpacker_face_lr_metas   sprite_backpacker_face_lr
     0009489D  _sprite_backpacker_face_lr_metas   sprite_backpacker_face_lr
     0009489F  _sprite_backpacker_face_lr_anima   sprite_backpacker_face_lr
     000948AF  _sprite_backpacker_face_lr_anima   sprite_backpacker_face_lr
ASxxxx Linker V03.00 + NoICE + sdld,  page 54.
Hexadecimal  [32-Bits]

Area                                    Addr        Size        Decimal Bytes (Attributes)
--------------------------------        ----        ----        ------- ----- ------------
_CODE_9                             00094000    00000ECD =        3789. bytes (REL,CON)

      Value  Global                              Global Defined In Module
      -----  --------------------------------   ------------------------
     000948B1  _sprite_backpacker_face_lr         sprite_backpacker_face_lr
     000948C4  ___func_sprite_backpacker_face_u   sprite_backpacker_face_ul
     000948C4  _sprite_backpacker_face_ul_metas   sprite_backpacker_face_ul
     000948D0  _sprite_backpacker_face_ul_metas   sprite_backpacker_face_ul
     000948D2  _sprite_backpacker_face_ul_anima   sprite_backpacker_face_ul
     000948E2  _sprite_backpacker_face_ul_anima   sprite_backpacker_face_ul
     000948E4  _sprite_backpacker_face_ul         sprite_backpacker_face_ul
     000948F7  ___func_sprite_backpacker_face_u   sprite_backpacker_face_ur
     000948F7  _sprite_backpacker_face_ur_metas   sprite_backpacker_face_ur
     00094903  _sprite_backpacker_face_ur_metas   sprite_backpacker_face_ur
     00094905  _sprite_backpacker_face_ur_anima   sprite_backpacker_face_ur
     00094915  _sprite_backpacker_face_ur_anima   sprite_backpacker_face_ur
     00094917  _sprite_backpacker_face_ur         sprite_backpacker_face_ur
     0009492A  ___func_sprite_board_door          sprite_board_door
     0009492A  _sprite_board_door_metasprite_0    sprite_board_door
     00094936  _sprite_board_door_metasprites     sprite_board_door
     00094938  _sprite_board_door_animations      sprite_board_door
     00094948  _sprite_board_door_animations_lo   sprite_board_door
     0009494A  _sprite_board_door                 sprite_board_door
     0009495D  ___func_sprite_conspiracy_theori   sprite_conspiracy_theorist__
     0009495D  _sprite_conspiracy_theorist__0_m   sprite_conspiracy_theorist__
     00094969  _sprite_conspiracy_theorist__0_m   sprite_conspiracy_theorist__
     0009496B  _sprite_conspiracy_theorist__0_a   sprite_conspiracy_theorist__
     0009497B  _sprite_conspiracy_theorist__0_a   sprite_conspiracy_theorist__
     0009497D  _sprite_conspiracy_theorist__0     sprite_conspiracy_theorist__
     00094990  ___func_sprite_conspiracy_theori   sprite_conspiracy_theorist__
     00094990  _sprite_conspiracy_theorist__1_m   sprite_conspiracy_theorist__
     0009499C  _sprite_conspiracy_theorist__1_m   sprite_conspiracy_theorist__
     0009499E  _sprite_conspiracy_theorist__1_a   sprite_conspiracy_theorist__
     000949AE  _sprite_conspiracy_theorist__1_a   sprite_conspiracy_theorist__
     000949B0  _sprite_conspiracy_theorist__1     sprite_conspiracy_theorist__
     000949C3  ___func_sprite_conspiracy_theori   sprite_conspiracy_theorist__
     000949C3  _sprite_conspiracy_theorist__2_m   sprite_conspiracy_theorist__
     000949CF  _sprite_conspiracy_theorist__2_m   sprite_conspiracy_theorist__
     000949D1  _sprite_conspiracy_theorist__2_a   sprite_conspiracy_theorist__
     000949E1  _sprite_conspiracy_theorist__2_a   sprite_conspiracy_theorist__
     000949E3  _sprite_conspiracy_theorist__2     sprite_conspiracy_theorist__
     000949F6  ___func_sprite_conspiracy_theori   sprite_conspiracy_theorist_
     000949F6  _sprite_conspiracy_theorist__met   sprite_conspiracy_theorist_
     00094A02  _sprite_conspiracy_theorist__met   sprite_conspiracy_theorist_
     00094A04  _sprite_conspiracy_theorist__ani   sprite_conspiracy_theorist_
     00094A14  _sprite_conspiracy_theorist__ani   sprite_conspiracy_theorist_
     00094A16  _sprite_conspiracy_theorist_       sprite_conspiracy_theorist_
     00094A29  ___func_sprite_health0_tileset     sprite_health0_tileset
     00094A29  _sprite_health0_tileset            sprite_health0_tileset
     00094A4B  ___func_sprite_health0             sprite_health0
     00094A4B  _sprite_health0_metasprite_0       sprite_health0
     00094A57  _sprite_health0_metasprites        sprite_health0
     00094A59  _sprite_health0_animations         sprite_health0
     00094A69  _sprite_health0_animations_looku   sprite_health0
     00094A6B  _sprite_health0                    sprite_health0
ASxxxx Linker V03.00 + NoICE + sdld,  page 55.
Hexadecimal  [32-Bits]

Area                                    Addr        Size        Decimal Bytes (Attributes)
--------------------------------        ----        ----        ------- ----- ------------
_CODE_9                             00094000    00000ECD =        3789. bytes (REL,CON)

      Value  Global                              Global Defined In Module
      -----  --------------------------------   ------------------------
     00094A7E  ___func_sprite_health1             sprite_health1
     00094A7E  _sprite_health1_metasprite_0       sprite_health1
     00094A8A  _sprite_health1_metasprites        sprite_health1
     00094A8C  _sprite_health1_animations         sprite_health1
     00094A9C  _sprite_health1_animations_looku   sprite_health1
     00094A9E  _sprite_health1                    sprite_health1
     00094AB1  ___func_sprite_health2             sprite_health2
     00094AB1  _sprite_health2_metasprite_0       sprite_health2
     00094ABD  _sprite_health2_metasprites        sprite_health2
     00094ABF  _sprite_health2_animations         sprite_health2
     00094ACF  _sprite_health2_animations_looku   sprite_health2
     00094AD1  _sprite_health2                    sprite_health2
     00094AE4  ___func_sprite_health3             sprite_health3
     00094AE4  _sprite_health3_metasprite_0       sprite_health3
     00094AF0  _sprite_health3_metasprites        sprite_health3
     00094AF2  _sprite_health3_animations         sprite_health3
     00094B02  _sprite_health3_animations_looku   sprite_health3
     00094B04  _sprite_health3                    sprite_health3
     00094B17  ___func_sprite_health4_tileset     sprite_health4_tileset
     00094B17  _sprite_health4_tileset            sprite_health4_tileset
     00094B39  ___func_sprite_health4             sprite_health4
     00094B39  _sprite_health4_metasprite_0       sprite_health4
     00094B45  _sprite_health4_metasprites        sprite_health4
     00094B47  _sprite_health4_animations         sprite_health4
     00094B57  _sprite_health4_animations_looku   sprite_health4
     00094B59  _sprite_health4                    sprite_health4
     00094B6C  ___func_sprite_invisible_tileset   sprite_invisible_tileset
     00094B6C  _sprite_invisible_tileset          sprite_invisible_tileset
     00094B6F  ___func_sprite_invisible           sprite_invisible
     00094B6F  _sprite_invisible_metasprite_0     sprite_invisible
     00094B73  _sprite_invisible_metasprites      sprite_invisible
     00094B75  _sprite_invisible_animations       sprite_invisible
     00094B85  _sprite_invisible_animations_loo   sprite_invisible
     00094B87  _sprite_invisible                  sprite_invisible
     00094B9A  ___func_sprite_map_cursor          sprite_map_cursor
     00094B9A  _sprite_map_cursor_metasprite_0    sprite_map_cursor
     00094BA2  _sprite_map_cursor_metasprite_1    sprite_map_cursor
     00094BAA  _sprite_map_cursor_metasprites     sprite_map_cursor
     00094BAE  _sprite_map_cursor_animations      sprite_map_cursor
     00094BBE  _sprite_map_cursor_animations_lo   sprite_map_cursor
     00094BC0  _sprite_map_cursor                 sprite_map_cursor
     00094BD3  ___func_sprite_signpost            sprite_signpost
     00094BD3  _sprite_signpost_metasprite_0      sprite_signpost
     00094BDF  _sprite_signpost_metasprites       sprite_signpost
     00094BE1  _sprite_signpost_animations        sprite_signpost
     00094BF1  _sprite_signpost_animations_look   sprite_signpost
     00094BF3  _sprite_signpost                   sprite_signpost
     00094C06  ___func_sprite_trucker_face_ll     sprite_trucker_face_ll
     00094C06  _sprite_trucker_face_ll_metaspri   sprite_trucker_face_ll
     00094C12  _sprite_trucker_face_ll_metaspri   sprite_trucker_face_ll
     00094C14  _sprite_trucker_face_ll_animatio   sprite_trucker_face_ll
ASxxxx Linker V03.00 + NoICE + sdld,  page 56.
Hexadecimal  [32-Bits]

Area                                    Addr        Size        Decimal Bytes (Attributes)
--------------------------------        ----        ----        ------- ----- ------------
_CODE_9                             00094000    00000ECD =        3789. bytes (REL,CON)

      Value  Global                              Global Defined In Module
      -----  --------------------------------   ------------------------
     00094C24  _sprite_trucker_face_ll_animatio   sprite_trucker_face_ll
     00094C26  _sprite_trucker_face_ll            sprite_trucker_face_ll
     00094C39  ___func_sprite_trucker_face_lr     sprite_trucker_face_lr
     00094C39  _sprite_trucker_face_lr_metaspri   sprite_trucker_face_lr
     00094C45  _sprite_trucker_face_lr_metaspri   sprite_trucker_face_lr
     00094C47  _sprite_trucker_face_lr_animatio   sprite_trucker_face_lr
     00094C57  _sprite_trucker_face_lr_animatio   sprite_trucker_face_lr
     00094C59  _sprite_trucker_face_lr            sprite_trucker_face_lr
     00094C6C  ___func_sprite_trucker_face_ul     sprite_trucker_face_ul
     00094C6C  _sprite_trucker_face_ul_metaspri   sprite_trucker_face_ul
     00094C78  _sprite_trucker_face_ul_metaspri   sprite_trucker_face_ul
     00094C7A  _sprite_trucker_face_ul_animatio   sprite_trucker_face_ul
     00094C8A  _sprite_trucker_face_ul_animatio   sprite_trucker_face_ul
     00094C8C  _sprite_trucker_face_ul            sprite_trucker_face_ul
     00094C9F  ___func_sprite_trucker_face_ur     sprite_trucker_face_ur
     00094C9F  _sprite_trucker_face_ur_metaspri   sprite_trucker_face_ur
     00094CAB  _sprite_trucker_face_ur_metaspri   sprite_trucker_face_ur
     00094CAD  _sprite_trucker_face_ur_animatio   sprite_trucker_face_ur
     00094CBD  _sprite_trucker_face_ur_animatio   sprite_trucker_face_ur
     00094CBF  _sprite_trucker_face_ur            sprite_trucker_face_ur
     00094CD2  ___func_sprite_vagrant_face_ll     sprite_vagrant_face_ll
     00094CD2  _sprite_vagrant_face_ll_metaspri   sprite_vagrant_face_ll
     00094CDE  _sprite_vagrant_face_ll_metaspri   sprite_vagrant_face_ll
     00094CE0  _sprite_vagrant_face_ll_animatio   sprite_vagrant_face_ll
     00094CF0  _sprite_vagrant_face_ll_animatio   sprite_vagrant_face_ll
     00094CF2  _sprite_vagrant_face_ll            sprite_vagrant_face_ll
     00094D05  ___func_sprite_vagrant_face_lr     sprite_vagrant_face_lr
     00094D05  _sprite_vagrant_face_lr_metaspri   sprite_vagrant_face_lr
     00094D11  _sprite_vagrant_face_lr_metaspri   sprite_vagrant_face_lr
     00094D13  _sprite_vagrant_face_lr_animatio   sprite_vagrant_face_lr
     00094D23  _sprite_vagrant_face_lr_animatio   sprite_vagrant_face_lr
     00094D25  _sprite_vagrant_face_lr            sprite_vagrant_face_lr
     00094D38  ___func_sprite_vagrant_face_ul     sprite_vagrant_face_ul
     00094D38  _sprite_vagrant_face_ul_metaspri   sprite_vagrant_face_ul
     00094D44  _sprite_vagrant_face_ul_metaspri   sprite_vagrant_face_ul
     00094D46  _sprite_vagrant_face_ul_animatio   sprite_vagrant_face_ul
     00094D56  _sprite_vagrant_face_ul_animatio   sprite_vagrant_face_ul
     00094D58  _sprite_vagrant_face_ul            sprite_vagrant_face_ul
     00094D6B  ___func_sprite_vagrant_face_ur     sprite_vagrant_face_ur
     00094D6B  _sprite_vagrant_face_ur_metaspri   sprite_vagrant_face_ur
     00094D77  _sprite_vagrant_face_ur_metaspri   sprite_vagrant_face_ur
     00094D79  _sprite_vagrant_face_ur_animatio   sprite_vagrant_face_ur
     00094D89  _sprite_vagrant_face_ur_animatio   sprite_vagrant_face_ur
     00094D8B  _sprite_vagrant_face_ur            sprite_vagrant_face_ur
     00094D9E  ___func_sprite_witch_face_ll       sprite_witch_face_ll
     00094D9E  _sprite_witch_face_ll_metasprite   sprite_witch_face_ll
     00094DAA  _sprite_witch_face_ll_metasprite   sprite_witch_face_ll
     00094DAC  _sprite_witch_face_ll_animations   sprite_witch_face_ll
     00094DBC  _sprite_witch_face_ll_animations   sprite_witch_face_ll
     00094DBE  _sprite_witch_face_ll              sprite_witch_face_ll
     00094DD1  ___func_sprite_witch_face_lr       sprite_witch_face_lr
ASxxxx Linker V03.00 + NoICE + sdld,  page 57.
Hexadecimal  [32-Bits]

Area                                    Addr        Size        Decimal Bytes (Attributes)
--------------------------------        ----        ----        ------- ----- ------------
_CODE_9                             00094000    00000ECD =        3789. bytes (REL,CON)

      Value  Global                              Global Defined In Module
      -----  --------------------------------   ------------------------
     00094DD1  _sprite_witch_face_lr_metasprite   sprite_witch_face_lr
     00094DDD  _sprite_witch_face_lr_metasprite   sprite_witch_face_lr
     00094DDF  _sprite_witch_face_lr_animations   sprite_witch_face_lr
     00094DEF  _sprite_witch_face_lr_animations   sprite_witch_face_lr
     00094DF1  _sprite_witch_face_lr              sprite_witch_face_lr
     00094E04  ___func_sprite_witch_face_ul       sprite_witch_face_ul
     00094E04  _sprite_witch_face_ul_metasprite   sprite_witch_face_ul
     00094E10  _sprite_witch_face_ul_metasprite   sprite_witch_face_ul
     00094E12  _sprite_witch_face_ul_animations   sprite_witch_face_ul
     00094E22  _sprite_witch_face_ul_animations   sprite_witch_face_ul
     00094E24  _sprite_witch_face_ul              sprite_witch_face_ul
     00094E37  ___func_sprite_witch_face_ur       sprite_witch_face_ur
     00094E37  _sprite_witch_face_ur_metasprite   sprite_witch_face_ur
     00094E43  _sprite_witch_face_ur_metasprite   sprite_witch_face_ur
     00094E45  _sprite_witch_face_ur_animations   sprite_witch_face_ur
     00094E55  _sprite_witch_face_ur_animations   sprite_witch_face_ur
     00094E57  _sprite_witch_face_ur              sprite_witch_face_ur
     00094E6A  _spritesheet_none_metasprite       spritesheet_none
     00094E6E  _spritesheet_none_metasprites      spritesheet_none
     00094E70  _spritesheet_none                  spritesheet_none
     00094E83  _trigger_2_interact                trigger_2_interact
     00094E8A  _trigger_3_interact                trigger_3_interact
     00094E91  _trigger_37_interact               trigger_37_interact
     00094EBC  _logo_init                         logo
     00094ECC  _logo_update                       logo
ASxxxx Linker V03.00 + NoICE + sdld,  page 58.
Hexadecimal  [32-Bits]

Area                                    Addr        Size        Decimal Bytes (Attributes)
--------------------------------        ----        ----        ------- ----- ------------
_CODE_5                             00054000    00003FFE =       16382. bytes (REL,CON)

      Value  Global                              Global Defined In Module
      -----  --------------------------------   ------------------------
     00054000  _core_reset                        core
     00054075  _process_VM                        core
     0005431C  _core_run                          core
     00054446  _printer_send_receive              gbprinter
     00054480  _printer_send_byte                 gbprinter
     0005449F  _printer_send_command              gbprinter
     000544CA  _printer_print_tile                gbprinter
     00054564  _printer_wait                      gbprinter
     00054594  _gbprinter_detect                  gbprinter
     000545B6  _gbprinter_print_overlay           gbprinter
     000547F9  _data_init                         load_save
     00054844  _save_points                       load_save
     0005489C  _data_slot_address                 load_save
     00054900  _data_save                         load_save
     000549E6  _data_load                         load_save
     00054AF5  _data_clear                        load_save
     00054B26  _data_peek                         load_save
     00054BD4  _trigger_reset                     trigger
     00054BE4  _trigger_interact                  trigger
     00054C24  _trigger_activate_at               trigger
     00054C6F  _trigger_at_intersection           trigger
     00054D84  _trigger_activate_at_intersectio   trigger
     00054EC6  _trigger_at_tile                   trigger
     00054F56  _actor_clock_0_update              actor_clock_0_update
     000552D2  _actor_clock_1_update              actor_clock_1_update
     0005564E  _actor_clock_2_update              actor_clock_2_update
     000559CA  _actor_clock_3_update              actor_clock_3_update
     00055D46  _actor_clock_4_update              actor_clock_4_update
     000560C2  _actor_clock_5_update              actor_clock_5_update
     0005643E  _actor_clock_6_update              actor_clock_6_update
     000567BA  _actor_clock_7_update              actor_clock_7_update
     00056B36  ___func_bg_b_c11_alt_tileset       bg_b_c11_alt_tileset
     00056B36  _bg_b_c11_alt_tileset              bg_b_c11_alt_tileset
     00056F28  ___func_bg_b_c11_tileset           bg_b_c11_tileset
     00056F28  _bg_b_c11_tileset                  bg_b_c11_tileset
     000572DA  ___func_bg_e11_tileset             bg_e11_tileset
     000572DA  _bg_e11_tileset                    bg_e11_tileset
     000576AC  ___func_bg_f11_tileset             bg_f11_tileset
     000576AC  _bg_f11_tileset                    bg_f11_tileset
     00057ACE  ___func_bg_map_template_tileset    bg_map_template_tileset
     00057ACE  _bg_map_template_tileset           bg_map_template_tileset
     00057FE9  _song_song_template_1_Data         song_song_template_1_Data
ASxxxx Linker V03.00 + NoICE + sdld,  page 59.
Hexadecimal  [32-Bits]

Area                                    Addr        Size        Decimal Bytes (Attributes)
--------------------------------        ----        ----        ------- ----- ------------
_CRASH_HEADER0                      00000000    00000005 =           5. bytes (ABS,CON)

      Value  Global                              Global Defined In Module
      -----  --------------------------------   ------------------------
ASxxxx Linker V03.00 + NoICE + sdld,  page 60.
Hexadecimal  [32-Bits]

Area                                    Addr        Size        Decimal Bytes (Attributes)
--------------------------------        ----        ----        ------- ----- ------------
_CRASH_HEADER1                      00000000    00000004 =           4. bytes (ABS,CON)

      Value  Global                              Global Defined In Module
      -----  --------------------------------   ------------------------
ASxxxx Linker V03.00 + NoICE + sdld,  page 61.
Hexadecimal  [32-Bits]

Area                                    Addr        Size        Decimal Bytes (Attributes)
--------------------------------        ----        ----        ------- ----- ------------
_CODE_6                             00064000    00003FFE =       16382. bytes (REL,CON)

      Value  Global                              Global Defined In Module
      -----  --------------------------------   ------------------------
     00064000  ___HandleCrash_banked              
     00064367  _CGBFadeToWhiteStep                fade_manager
     000643A0  _CGBFadeToBlackStep                fade_manager
     000643DB  _ApplyPaletteChangeColor           fade_manager
     0006441F  _fade_speeds                       fade_manager
     00064426  _DMGFadeToWhiteStep                fade_manager
     00064449  _DMGFadeToBlackStep                fade_manager
     0006446E  _ApplyPaletteChangeDMG             fade_manager
     000644E5  _fade_init                         fade_manager
     0006450D  _fade_in                           fade_manager
     0006453E  _fade_out                          fade_manager
     00064570  _fade_update                       fade_manager
     000645CA  _fade_applypalettechange           fade_manager
     000645E4  _fade_setspeed                     fade_manager
     000645F4  _fade_in_modal                     fade_manager
     0006460E  _fade_out_modal                    fade_manager
     00064628  ___func_VM_CAMERA                  vm_camera
     00064628  _vm_camera_move_to                 vm_camera
     0006477B  _vm_camera_set_pos                 vm_camera
     000647C2  _camera_shake_frames               vm_camera
     000648BA  ___func_VM_PALETTE                 vm_palette
     000648BA  _vm_load_palette                   vm_palette
     00064AB1  ___func_VM_SIO                     vm_sio
     00064AB1  _vm_sio_set_mode                   vm_sio
     00064AC4  _vm_sio_exchange                   vm_sio
     00064E1D  _actor_clock_8_update              actor_clock_8_update
     00065199  _actor_clock_9_update              actor_clock_9_update
     00065515  _actor_clock_update                actor_clock_update
     00065891  ___func_bg_a11_tilemap_attr        bg_a11_tilemap_attr
     00065891  _bg_a11_tilemap_attr               bg_a11_tilemap_attr
     00065A71  ___func_bg_a11_tilemap             bg_a11_tilemap
     00065A71  _bg_a11_tilemap                    bg_a11_tilemap
     00065C51  ___func_bg_b_c11_alt_tilemap_att   bg_b_c11_alt_tilemap_attr
     00065C51  _bg_b_c11_alt_tilemap_attr         bg_b_c11_alt_tilemap_attr
     00065F21  ___func_bg_b_c11_alt_tilemap       bg_b_c11_alt_tilemap
     00065F21  _bg_b_c11_alt_tilemap              bg_b_c11_alt_tilemap
     000661F1  ___func_bg_b_c11_tilemap           bg_b_c11_tilemap
     000661F1  _bg_b_c11_tilemap                  bg_b_c11_tilemap
     000664C1  ___func_bg_d10_tilemap             bg_d10_tilemap
     000664C1  _bg_d10_tilemap                    bg_d10_tilemap
     000666A1  ___func_bg_d10_tileset             bg_d10_tileset
     000666A1  _bg_d10_tileset                    bg_d10_tileset
     00066883  ___func_bg_d11_tilemap             bg_d11_tilemap
     00066883  _bg_d11_tilemap                    bg_d11_tilemap
     00066A63  ___func_bg_d12_tilemap             bg_d12_tilemap
     00066A63  _bg_d12_tilemap                    bg_d12_tilemap
     00066C43  ___func_bg_d12_tileset             bg_d12_tileset
     00066C43  _bg_d12_tileset                    bg_d12_tileset
     00066F65  ___func_bg_e10_tileset             bg_e10_tileset
     00066F65  _bg_e10_tileset                    bg_e10_tileset
ASxxxx Linker V03.00 + NoICE + sdld,  page 62.
Hexadecimal  [32-Bits]

Area                                    Addr        Size        Decimal Bytes (Attributes)
--------------------------------        ----        ----        ------- ----- ------------
_CODE_6                             00064000    00003FFE =       16382. bytes (REL,CON)

      Value  Global                              Global Defined In Module
      -----  --------------------------------   ------------------------
     00067287  ___func_bg_lost_to_newport_title   bg_lost_to_newport_titlescr_
     00067287  _bg_lost_to_newport_titlescr_til   bg_lost_to_newport_titlescr_
     00067599  ___func_scene_b_c11_alt_collisio   scene_b_c11_alt_collisions
     00067599  _scene_b_c11_alt_collisions        scene_b_c11_alt_collisions
     00067869  ___func_scene_b_c11_collisions     scene_b_c11_collisions
     00067869  _scene_b_c11_collisions            scene_b_c11_collisions
     00067B39  ___func_sprite_backpacker_shade_   sprite_backpacker_shade_tile
     00067B39  _sprite_backpacker_shade_tileset   sprite_backpacker_shade_tile
     00067C9B  _pointnclick_init                  pointnclick
     00067CD4  _pointnclick_update                pointnclick
ASxxxx Linker V03.00 + NoICE + sdld,  page 63.
Hexadecimal  [32-Bits]

Area                                    Addr        Size        Decimal Bytes (Attributes)
--------------------------------        ----        ----        ------- ----- ------------
_CRASH_SCRATCH2                     00000000    000001CB =         459. bytes (ABS,CON)

      Value  Global                              Global Defined In Module
      -----  --------------------------------   ------------------------
ASxxxx Linker V03.00 + NoICE + sdld,  page 64.
Hexadecimal  [32-Bits]

Area                                    Addr        Size        Decimal Bytes (Attributes)
--------------------------------        ----        ----        ------- ----- ------------
_CODE_3                             00034000    00004000 =       16384. bytes (REL,CON)

      Value  Global                              Global Defined In Module
      -----  --------------------------------   ------------------------
     00034000  _load_init                         data_manager
     00034013  _spritesheet_none_far              data_manager
     00034016  _load_bkg_tileset                  data_manager
     000340EF  _load_background                   data_manager
     000341ED  _load_sprite                       data_manager
     000342EA  _load_bounds                       data_manager
     0003430A  _do_load_palette                   data_manager
     0003438A  _load_scene                        data_manager
     00034C86  _load_player                       data_manager
     00034CD2  _load_emote                        data_manager
     00034CE6  _scroll_init                       scroll
     00034D10  _scroll_reset                      scroll
     00034D30  _scroll_update                     scroll
     00034E47  _scroll_viewport                   scroll
     000352F5  _scroll_repaint                    scroll
     00035305  _scroll_render_rows                scroll
     0003538D  _scroll_queue_row                  scroll
     000353B2  _scroll_queue_col                  scroll
     000353FE  ___func_VM_UI                      vm_ui
     000353FE  _vm_display_text                   vm_ui
     0003546C  _vm_switch_text_layer              vm_ui
     00035486  _vm_overlay_setpos                 vm_ui
     000354A0  _vm_overlay_wait                   vm_ui
     00035531  _vm_overlay_move_to                vm_ui
     00035575  _vm_overlay_set_scroll             vm_ui
     000355B2  _vm_overlay_clear                  vm_ui
     0003568B  _vm_overlay_show                   vm_ui
     000356D9  _vm_choice                         vm_ui
     000357F4  _vm_set_font                       vm_ui
     00035825  _vm_overlay_scroll                 vm_ui
     00035885  _vm_overlay_set_submap             vm_ui
     000358F5  _vm_overlay_set_submap_ex          vm_ui
     000359F8  _vm_overlay_set_map                vm_ui
     00035B5C  _vm_set_text_sound                 vm_ui
     00035B75  _actor_ul_update                   actor_ul_update
     000362FB  ___func_font_gbs_variable_width    font_gbs_variable_width
     00037176  _font_gbs_variable_width           font_gbs_variable_width
     0003717E  ___func_scene_a11                  scene_a11
     0003717E  _scene_a11                         scene_a11
     000371B9  _adventure_init                    adventure
     000371CE  _adventure_update                  adventure
     000378E5  _shmup_init                        shmup
     00037981  _shmup_update                      shmup

ASxxxx Linker V03.00 + NoICE + sdld,  page 65.
Hexadecimal  [32-Bits]

Area                                    Addr        Size        Decimal Bytes (Attributes)
--------------------------------        ----        ----        ------- ----- ------------
_CODE_8                             00084000    00004000 =       16384. bytes (REL,CON)

      Value  Global                              Global Defined In Module
      -----  --------------------------------   ------------------------
     00084000  _events_init                       events
     00084040  _timers_init                       events
     000840E8  _save_sram_banks                   
     00084170  _erase_flash                       
     00084186  _restore_sram_bank                 flasher
     000841C0  _restore_sram                      flasher
     000841D6  _save_sram                         flasher
     00084206  _music_init_driver                 music_manager
     0008425D  _music_init_events                 music_manager
     00084299  _music_events_poll                 music_manager
     000842C3  _music_pause                       music_manager
     000842E8  _palette_init                      palette
     00084321  _CGBZeroPalette                    palette
     00084336  _SGBTransferPalettes               palette
     000843C3  _scroll_rect                       
     00084400  ___func_VM_GBPRINTER               vm_gbprinter
     00084400  _vm_print_detect                   vm_gbprinter
     00084452  _vm_print_overlay                  vm_gbprinter
     000844AA  ___func_VM_LOAD_SAVE               vm_load_save
     000844AA  _vm_save_clear                     vm_load_save
     000844B9  _vm_save_peek                      vm_load_save
     0008453B  ___func_VM_MATH                    vm_math
     0008453B  _vm_sin_scale                      vm_math
     000845DD  _vm_cos_scale                      vm_math
     00084681  ___func_VM_MUSIC                   vm_music
     00084681  _vm_music_play                     vm_music
     000846C5  _vm_music_stop                     vm_music
     000846E7  _vm_music_mute                     vm_music
     0008471D  _vm_music_routine                  vm_music
     00084744  _vm_music_setpos                   vm_music
     0008474E  _vm_sound_mastervol                vm_music
     00084754  _vm_sfx_play                       vm_music
     000847C7  ___func_VM_PROJECTILE              vm_projectiles
     000847C7  _vm_projectile_launch              vm_projectiles
     00084808  _vm_projectile_load_type           vm_projectiles
     000848B3  ___func_VM_RTC                     vm_rtc
     000848B3  _vm_rtc_latch                      vm_rtc
     000848BB  _vm_rtc_get                        vm_rtc
     00084924  _vm_rtc_set                        vm_rtc
     0008498C  _vm_rtc_start                      vm_rtc
     000849AF  ___func_VM_SCENE                   vm_scene
     000849AF  _vm_scene_push                     vm_scene
     00084A34  _vm_scene_pop                      vm_scene
     00084A42  _vm_scene_pop_all                  vm_scene
     00084A4D  _vm_scene_stack_reset              vm_scene
     00084A56  _itoa_fmt                          vm_ui_a
     00084A8F  .utoa_fmt                          vm_ui_a
     00084B39  _actor_0_interact                  actor_0_interact
     00084B73  _actor_3_interact                  actor_3_interact
     00084B9B  _actor_6_update                    actor_6_update
ASxxxx Linker V03.00 + NoICE + sdld,  page 66.
Hexadecimal  [32-Bits]

Area                                    Addr        Size        Decimal Bytes (Attributes)
--------------------------------        ----        ----        ------- ----- ------------
_CODE_8                             00084000    00004000 =       16384. bytes (REL,CON)

      Value  Global                              Global Defined In Module
      -----  --------------------------------   ------------------------
     00084BEF  _actor_cat_interact                actor_cat_interact
     00084D17  _actor_duck_update                 actor_duck_update
     00084D78  _actor_health_indicator_0_update   actor_health_indicator_0_upd
     00084DFC  _actor_health_indicator_1_update   actor_health_indicator_1_upd
     00084E80  _actor_health_indicator_2_update   actor_health_indicator_2_upd
     00084F04  _actor_health_indicator_3_update   actor_health_indicator_3_upd
     00084F88  _actor_health_indicator_4_update   actor_health_indicator_4_upd
     0008500C  _actor_health_indicator_5_update   actor_health_indicator_5_upd
     00085090  _actor_health_indicator_6_update   actor_health_indicator_6_upd
     00085114  _actor_health_indicator_7_update   actor_health_indicator_7_upd
     00085198  _actor_health_indicator_8_update   actor_health_indicator_8_upd
     0008521C  _actor_health_indicator_9_update   actor_health_indicator_9_upd
     000852A0  _actor_health_indicator_update     actor_health_indicator_updat
     00085324  ___func_bg_date_tileset            bg_date_tileset
     00085324  _bg_date_tileset                   bg_date_tileset
     000853A6  ___func_emote_shock                emote_shock
     000853A6  _emote_shock                       emote_shock
     000853E6  ___func_frame_image                frame_image
     000853E6  _frame_image                       frame_image
     00085476  ___func_palette_0                  palette_0
     00085476  _palette_0                         palette_0
     000854B9  ___func_palette_1                  palette_1
     000854B9  _palette_1                         palette_1
     000854FC  ___func_palette_2                  palette_2
     000854FC  _palette_2                         palette_2
     0008553F  _scene_a11_init                    scene_a11_init
     00085579  ___func_scene_b_c11_alt            scene_b_c11_alt
     00085579  _scene_b_c11_alt                   scene_b_c11_alt
     000855B4  ___func_scene_b_c11                scene_b_c11
     000855B4  _scene_b_c11                       scene_b_c11
     000855EF  ___func_scene_character_select_a   scene_character_select_actor
     000855EF  _scene_character_select_actors     scene_character_select_actor
     000856BF  ___func_scene_character_select     scene_character_select
     000856BF  _scene_character_select            scene_character_select
     000856FA  ___func_scene_d10_actors           scene_d10_actors
     000856FA  _scene_d10_actors                  scene_d10_actors
     000857CA  ___func_scene_d10                  scene_d10
     000857CA  _scene_d10                         scene_d10
     00085805  ___func_scene_d11_actors           scene_d11_actors
     00085805  _scene_d11_actors                  scene_d11_actors
     0008586D  _scene_d11_init                    scene_d11_init
     000858E7  ___func_scene_d11                  scene_d11
     000858E7  _scene_d11                         scene_d11
     00085922  ___func_scene_d12_actors           scene_d12_actors
     00085922  _scene_d12_actors                  scene_d12_actors
     0008598A  ___func_scene_d12                  scene_d12
     0008598A  _scene_d12                         scene_d12
     000859C5  ___func_scene_date                 scene_date
     000859C5  _scene_date                        scene_date
     00085A00  ___func_scene_e10_actors           scene_e10_actors
     00085A00  _scene_e10_actors                  scene_e10_actors
ASxxxx Linker V03.00 + NoICE + sdld,  page 67.
Hexadecimal  [32-Bits]

Area                                    Addr        Size        Decimal Bytes (Attributes)
--------------------------------        ----        ----        ------- ----- ------------
_CODE_8                             00084000    00004000 =       16384. bytes (REL,CON)

      Value  Global                              Global Defined In Module
      -----  --------------------------------   ------------------------
     00085A68  ___func_scene_e10                  scene_e10
     00085A68  _scene_e10                         scene_e10
     00085AA3  ___func_scene_e11_actors           scene_e11_actors
     00085AA3  _scene_e11_actors                  scene_e11_actors
     00085B3F  ___func_scene_e11                  scene_e11
     00085B3F  _scene_e11                         scene_e11
     00085B7A  ___func_scene_e12_actors           scene_e12_actors
     00085B7A  _scene_e12_actors                  scene_e12_actors
     00085C16  ___func_scene_e12                  scene_e12
     00085C16  _scene_e12                         scene_e12
     00085C51  ___func_scene_f10_actors           scene_f10_actors
     00085C51  _scene_f10_actors                  scene_f10_actors
     00085D21  _scene_f10_init                    scene_f10_init
     00085D68  ___func_scene_f10_interior_actor   scene_f10_interior_actors
     00085D68  _scene_f10_interior_actors         scene_f10_interior_actors
     00085E04  ___func_scene_f10_interior         scene_f10_interior
     00085E04  _scene_f10_interior                scene_f10_interior
     00085E3F  ___func_scene_f10                  scene_f10
     00085E3F  _scene_f10                         scene_f10
     00085E7A  ___func_scene_f11_actors           scene_f11_actors
     00085E7A  _scene_f11_actors                  scene_f11_actors
     00085EE2  ___func_scene_f11                  scene_f11
     00085EE2  _scene_f11                         scene_f11
     00085F1D  ___func_scene_g10_actors           scene_g10_actors
     00085F1D  _scene_g10_actors                  scene_g10_actors
     00085FB9  ___func_scene_g10                  scene_g10
     00085FB9  _scene_g10                         scene_g10
     00085FF4  _scene_minimap_init                scene_minimap_init
     00086040  ___func_scene_minimap              scene_minimap
     00086040  _scene_minimap                     scene_minimap
     0008607B  ___func_scene_scene_template_act   scene_scene_template_actors
     0008607B  _scene_scene_template_actors       scene_scene_template_actors
     0008617F  ___func_scene_scene_template       scene_scene_template
     0008617F  _scene_scene_template              scene_scene_template
     000861BA  ___func_scene_status_actors        scene_status_actors
     000861BA  _scene_status_actors               scene_status_actors
     0008628A  _scene_status_init                 scene_status_init
     000863CA  ___func_scene_status               scene_status
     000863CA  _scene_status                      scene_status
     00086405  _scene_title_screen_init           scene_title_screen_init
     00086451  ___func_scene_title_screen         scene_title_screen
     00086451  _scene_title_screen                scene_title_screen
     0008648C  _script_engine_init                
     000864DE  _script_record_player_positi       script_record_player_positi
     00086517  ___func_sprite_backpacker_face_l   sprite_backpacker_face_ll_ti
     00086517  _sprite_backpacker_face_ll_tiles   sprite_backpacker_face_ll_ti
     00086559  ___func_sprite_backpacker_face_l   sprite_backpacker_face_lr_ti
     00086559  _sprite_backpacker_face_lr_tiles   sprite_backpacker_face_lr_ti
     0008659B  ___func_sprite_backpacker_face_u   sprite_backpacker_face_ul_ti
     0008659B  _sprite_backpacker_face_ul_tiles   sprite_backpacker_face_ul_ti
     000865DD  ___func_sprite_backpacker_face_u   sprite_backpacker_face_ur_ti
ASxxxx Linker V03.00 + NoICE + sdld,  page 68.
Hexadecimal  [32-Bits]

Area                                    Addr        Size        Decimal Bytes (Attributes)
--------------------------------        ----        ----        ------- ----- ------------
_CODE_8                             00084000    00004000 =       16384. bytes (REL,CON)

      Value  Global                              Global Defined In Module
      -----  --------------------------------   ------------------------
     000865DD  _sprite_backpacker_face_ur_tiles   sprite_backpacker_face_ur_ti
     0008661F  ___func_sprite_backpacker_shade    sprite_backpacker_shade
     0008661F  _sprite_backpacker_shade_metaspr   sprite_backpacker_shade
     0008662B  _sprite_backpacker_shade_metaspr   sprite_backpacker_shade
     00086637  _sprite_backpacker_shade_metaspr   sprite_backpacker_shade
     00086643  _sprite_backpacker_shade_metaspr   sprite_backpacker_shade
     0008664F  _sprite_backpacker_shade_metaspr   sprite_backpacker_shade
     0008665B  _sprite_backpacker_shade_metaspr   sprite_backpacker_shade
     00086667  _sprite_backpacker_shade_metaspr   sprite_backpacker_shade
     00086673  _sprite_backpacker_shade_metaspr   sprite_backpacker_shade
     0008667F  _sprite_backpacker_shade_metaspr   sprite_backpacker_shade
     00086697  _sprite_backpacker_shade_animati   sprite_backpacker_shade
     000866A7  _sprite_backpacker_shade_animati   sprite_backpacker_shade
     000866A9  _sprite_backpacker_shade           sprite_backpacker_shade
     000866BC  ___func_sprite_backpacker          sprite_backpacker
     000866BC  _sprite_backpacker_metasprite_0    sprite_backpacker
     000866C8  _sprite_backpacker_metasprite_1    sprite_backpacker
     000866D4  _sprite_backpacker_metasprite_2    sprite_backpacker
     000866E0  _sprite_backpacker_metasprite_3    sprite_backpacker
     000866EC  _sprite_backpacker_metasprite_4    sprite_backpacker
     000866F8  _sprite_backpacker_metasprite_5    sprite_backpacker
     00086704  _sprite_backpacker_metasprite_6    sprite_backpacker
     00086710  _sprite_backpacker_metasprite_7    sprite_backpacker
     0008671C  _sprite_backpacker_metasprites     sprite_backpacker
     00086734  _sprite_backpacker_animations      sprite_backpacker
     00086744  _sprite_backpacker_animations_lo   sprite_backpacker
     00086746  _sprite_backpacker                 sprite_backpacker
     00086759  ___func_sprite_board_door_tilese   sprite_board_door_tileset
     00086759  _sprite_board_door_tileset         sprite_board_door_tileset
     0008679B  ___func_sprite_cat_tileset         sprite_cat_tileset
     0008679B  _sprite_cat_tileset                sprite_cat_tileset
     0008689D  ___func_sprite_cat                 sprite_cat
     0008689D  _sprite_cat_metasprite_0           sprite_cat
     000868A9  _sprite_cat_metasprite_1           sprite_cat
     000868B5  _sprite_cat_metasprite_2           sprite_cat
     000868C1  _sprite_cat_metasprite_3           sprite_cat
     000868CD  _sprite_cat_metasprite_4           sprite_cat
     000868D9  _sprite_cat_metasprite_5           sprite_cat
     000868E5  _sprite_cat_metasprite_6           sprite_cat
     000868F1  _sprite_cat_metasprite_7           sprite_cat
     000868FD  _sprite_cat_metasprites            sprite_cat
     00086915  _sprite_cat_animations             sprite_cat
     00086925  _sprite_cat_animations_lookup      sprite_cat
     00086927  _sprite_cat                        sprite_cat
     0008693A  ___func_sprite_character_select_   sprite_character_select_cur_
     0008693A  _sprite_character_select_cur_til   sprite_character_select_cur_
     0008697C  ___func_sprite_character_select_   sprite_character_select_cur
     0008697C  _sprite_character_select_cur_met   sprite_character_select_cur
     00086988  _sprite_character_select_cur_met   sprite_character_select_cur
     00086994  _sprite_character_select_cur_met   sprite_character_select_cur
     000869A0  _sprite_character_select_cur_met   sprite_character_select_cur
ASxxxx Linker V03.00 + NoICE + sdld,  page 69.
Hexadecimal  [32-Bits]

Area                                    Addr        Size        Decimal Bytes (Attributes)
--------------------------------        ----        ----        ------- ----- ------------
_CODE_8                             00084000    00004000 =       16384. bytes (REL,CON)

      Value  Global                              Global Defined In Module
      -----  --------------------------------   ------------------------
     000869AC  _sprite_character_select_cur_met   sprite_character_select_cur
     000869B4  _sprite_character_select_cur_ani   sprite_character_select_cur
     000869C4  _sprite_character_select_cur_ani   sprite_character_select_cur
     000869C6  _sprite_character_select_cur       sprite_character_select_cur
     000869D9  ___func_sprite_clock_cursor_tile   sprite_clock_cursor_tileset
     000869D9  _sprite_clock_cursor_tileset       sprite_clock_cursor_tileset
     00086A3B  ___func_sprite_clock_cursor        sprite_clock_cursor
     00086A3B  _sprite_clock_cursor_metasprite_   sprite_clock_cursor
     00086A47  _sprite_clock_cursor_metasprite_   sprite_clock_cursor
     00086A4F  _sprite_clock_cursor_metasprites   sprite_clock_cursor
     00086A53  _sprite_clock_cursor_animations    sprite_clock_cursor
     00086A63  _sprite_clock_cursor_animations_   sprite_clock_cursor
     00086A65  _sprite_clock_cursor               sprite_clock_cursor
     00086A78  ___func_sprite_conspiracy_theori   sprite_conspiracy_theorist__
     00086A78  _sprite_conspiracy_theorist__0_t   sprite_conspiracy_theorist__
     00086ABA  ___func_sprite_conspiracy_theori   sprite_conspiracy_theorist__
     00086ABA  _sprite_conspiracy_theorist__1_t   sprite_conspiracy_theorist__
     00086AFC  ___func_sprite_conspiracy_theori   sprite_conspiracy_theorist__
     00086AFC  _sprite_conspiracy_theorist__2_t   sprite_conspiracy_theorist__
     00086B3E  ___func_sprite_conspiracy_theori   sprite_conspiracy_theorist__
     00086B3E  _sprite_conspiracy_theorist__3_t   sprite_conspiracy_theorist__
     00086C80  ___func_sprite_conspiracy_theori   sprite_conspiracy_theorist__
     00086C80  _sprite_conspiracy_theorist__3_m   sprite_conspiracy_theorist__
     00086C8C  _sprite_conspiracy_theorist__3_m   sprite_conspiracy_theorist__
     00086C98  _sprite_conspiracy_theorist__3_m   sprite_conspiracy_theorist__
     00086CA4  _sprite_conspiracy_theorist__3_m   sprite_conspiracy_theorist__
     00086CB0  _sprite_conspiracy_theorist__3_m   sprite_conspiracy_theorist__
     00086CBC  _sprite_conspiracy_theorist__3_m   sprite_conspiracy_theorist__
     00086CC8  _sprite_conspiracy_theorist__3_m   sprite_conspiracy_theorist__
     00086CD4  _sprite_conspiracy_theorist__3_m   sprite_conspiracy_theorist__
     00086CE0  _sprite_conspiracy_theorist__3_m   sprite_conspiracy_theorist__
     00086CF8  _sprite_conspiracy_theorist__3_a   sprite_conspiracy_theorist__
     00086D08  _sprite_conspiracy_theorist__3_a   sprite_conspiracy_theorist__
     00086D0A  _sprite_conspiracy_theorist__3     sprite_conspiracy_theorist__
     00086D1D  ___func_sprite_conspiracy_theori   sprite_conspiracy_theorist__
     00086D1D  _sprite_conspiracy_theorist__til   sprite_conspiracy_theorist__
     00086D5F  ___func_sprite_conspiracy_theori   sprite_conspiracy_theorist
     00086D5F  _sprite_conspiracy_theorist_meta   sprite_conspiracy_theorist
     00086D6B  _sprite_conspiracy_theorist_meta   sprite_conspiracy_theorist
     00086D77  _sprite_conspiracy_theorist_meta   sprite_conspiracy_theorist
     00086D83  _sprite_conspiracy_theorist_meta   sprite_conspiracy_theorist
     00086D8F  _sprite_conspiracy_theorist_meta   sprite_conspiracy_theorist
     00086D9B  _sprite_conspiracy_theorist_meta   sprite_conspiracy_theorist
     00086DA7  _sprite_conspiracy_theorist_meta   sprite_conspiracy_theorist
     00086DB3  _sprite_conspiracy_theorist_meta   sprite_conspiracy_theorist
     00086DBF  _sprite_conspiracy_theorist_meta   sprite_conspiracy_theorist
     00086DD7  _sprite_conspiracy_theorist_anim   sprite_conspiracy_theorist
     00086DE7  _sprite_conspiracy_theorist_anim   sprite_conspiracy_theorist
     00086DE9  _sprite_conspiracy_theorist        sprite_conspiracy_theorist
     00086DFC  ___func_sprite_door_tileset        sprite_door_tileset
     00086DFC  _sprite_door_tileset               sprite_door_tileset
ASxxxx Linker V03.00 + NoICE + sdld,  page 70.
Hexadecimal  [32-Bits]

Area                                    Addr        Size        Decimal Bytes (Attributes)
--------------------------------        ----        ----        ------- ----- ------------
_CODE_8                             00084000    00004000 =       16384. bytes (REL,CON)

      Value  Global                              Global Defined In Module
      -----  --------------------------------   ------------------------
     00086E5E  ___func_sprite_door                sprite_door
     00086E5E  _sprite_door_metasprite_0          sprite_door
     00086E6A  _sprite_door_metasprite_1          sprite_door
     00086E76  _sprite_door_metasprites           sprite_door
     00086E7A  _sprite_door_animations            sprite_door
     00086E8A  _sprite_door_animations_lookup     sprite_door
     00086E8C  _sprite_door                       sprite_door
     00086E9F  ___func_sprite_duck_tileset        sprite_duck_tileset
     00086E9F  _sprite_duck_tileset               sprite_duck_tileset
     00086F21  ___func_sprite_duck                sprite_duck
     00086F21  _sprite_duck_metasprite_0          sprite_duck
     00086F2D  _sprite_duck_metasprite_1          sprite_duck
     00086F39  _sprite_duck_metasprites           sprite_duck
     00086F3D  _sprite_duck_animations            sprite_duck
     00086F4D  _sprite_duck_animations_lookup     sprite_duck
     00086F4F  _sprite_duck                       sprite_duck
     00086F62  ___func_sprite_health1_tileset     sprite_health1_tileset
     00086F62  _sprite_health1_tileset            sprite_health1_tileset
     00086FA4  ___func_sprite_health2_tileset     sprite_health2_tileset
     00086FA4  _sprite_health2_tileset            sprite_health2_tileset
     00086FE6  ___func_sprite_health3_tileset     sprite_health3_tileset
     00086FE6  _sprite_health3_tileset            sprite_health3_tileset
     00087028  ___func_sprite_map_cursor_tilese   sprite_map_cursor_tileset
     00087028  _sprite_map_cursor_tileset         sprite_map_cursor_tileset
     0008706A  ___func_sprite_screen_door_tiles   sprite_screen_door_tileset
     0008706A  _sprite_screen_door_tileset        sprite_screen_door_tileset
     000870EC  ___func_sprite_screen_door         sprite_screen_door
     000870EC  _sprite_screen_door_metasprite_0   sprite_screen_door
     000870F8  _sprite_screen_door_metasprite_1   sprite_screen_door
     00087104  _sprite_screen_door_metasprites    sprite_screen_door
     00087108  _sprite_screen_door_animations     sprite_screen_door
     00087118  _sprite_screen_door_animations_l   sprite_screen_door
     0008711A  _sprite_screen_door                sprite_screen_door
     0008712D  ___func_sprite_signpost_tileset    sprite_signpost_tileset
     0008712D  _sprite_signpost_tileset           sprite_signpost_tileset
     0008716F  ___func_sprite_trucker_face_ll_t   sprite_trucker_face_ll_tiles
     0008716F  _sprite_trucker_face_ll_tileset    sprite_trucker_face_ll_tiles
     000871B1  ___func_sprite_trucker_face_lr_t   sprite_trucker_face_lr_tiles
     000871B1  _sprite_trucker_face_lr_tileset    sprite_trucker_face_lr_tiles
     000871F3  ___func_sprite_trucker_face_ul_t   sprite_trucker_face_ul_tiles
     000871F3  _sprite_trucker_face_ul_tileset    sprite_trucker_face_ul_tiles
     00087235  ___func_sprite_trucker_face_ur_t   sprite_trucker_face_ur_tiles
     00087235  _sprite_trucker_face_ur_tileset    sprite_trucker_face_ur_tiles
     00087277  ___func_sprite_trucker_tileset     sprite_trucker_tileset
     00087277  _sprite_trucker_tileset            sprite_trucker_tileset
     000873D9  ___func_sprite_trucker             sprite_trucker
     000873D9  _sprite_trucker_metasprite_0       sprite_trucker
     000873E5  _sprite_trucker_metasprite_1       sprite_trucker
     000873F1  _sprite_trucker_metasprite_2       sprite_trucker
     000873FD  _sprite_trucker_metasprite_3       sprite_trucker
     00087409  _sprite_trucker_metasprite_4       sprite_trucker
ASxxxx Linker V03.00 + NoICE + sdld,  page 71.
Hexadecimal  [32-Bits]

Area                                    Addr        Size        Decimal Bytes (Attributes)
--------------------------------        ----        ----        ------- ----- ------------
_CODE_8                             00084000    00004000 =       16384. bytes (REL,CON)

      Value  Global                              Global Defined In Module
      -----  --------------------------------   ------------------------
     00087415  _sprite_trucker_metasprite_5       sprite_trucker
     00087421  _sprite_trucker_metasprite_6       sprite_trucker
     0008742D  _sprite_trucker_metasprite_7       sprite_trucker
     00087439  _sprite_trucker_metasprites        sprite_trucker
     00087451  _sprite_trucker_animations         sprite_trucker
     00087461  _sprite_trucker_animations_looku   sprite_trucker
     00087463  _sprite_trucker                    sprite_trucker
     00087476  ___func_sprite_vagrant_face_ll_t   sprite_vagrant_face_ll_tiles
     00087476  _sprite_vagrant_face_ll_tileset    sprite_vagrant_face_ll_tiles
     000874B8  ___func_sprite_vagrant_face_lr_t   sprite_vagrant_face_lr_tiles
     000874B8  _sprite_vagrant_face_lr_tileset    sprite_vagrant_face_lr_tiles
     000874FA  ___func_sprite_vagrant_face_ul_t   sprite_vagrant_face_ul_tiles
     000874FA  _sprite_vagrant_face_ul_tileset    sprite_vagrant_face_ul_tiles
     0008753C  ___func_sprite_vagrant_face_ur_t   sprite_vagrant_face_ur_tiles
     0008753C  _sprite_vagrant_face_ur_tileset    sprite_vagrant_face_ur_tiles
     0008757E  ___func_sprite_vagrant             sprite_vagrant
     0008757E  _sprite_vagrant_metasprite_0       sprite_vagrant
     0008758A  _sprite_vagrant_metasprite_1       sprite_vagrant
     00087596  _sprite_vagrant_metasprite_2       sprite_vagrant
     000875A2  _sprite_vagrant_metasprite_3       sprite_vagrant
     000875AE  _sprite_vagrant_metasprite_4       sprite_vagrant
     000875BA  _sprite_vagrant_metasprite_5       sprite_vagrant
     000875C6  _sprite_vagrant_metasprite_6       sprite_vagrant
     000875D2  _sprite_vagrant_metasprite_7       sprite_vagrant
     000875DE  _sprite_vagrant_metasprites        sprite_vagrant
     000875F6  _sprite_vagrant_animations         sprite_vagrant
     00087606  _sprite_vagrant_animations_looku   sprite_vagrant
     00087608  _sprite_vagrant                    sprite_vagrant
     0008761B  ___func_sprite_witch_face_ll_til   sprite_witch_face_ll_tileset
     0008761B  _sprite_witch_face_ll_tileset      sprite_witch_face_ll_tileset
     0008765D  ___func_sprite_witch_face_lr_til   sprite_witch_face_lr_tileset
     0008765D  _sprite_witch_face_lr_tileset      sprite_witch_face_lr_tileset
     0008769F  ___func_sprite_witch_face_ul_til   sprite_witch_face_ul_tileset
     0008769F  _sprite_witch_face_ul_tileset      sprite_witch_face_ul_tileset
     000876E1  ___func_sprite_witch_face_ur_til   sprite_witch_face_ur_tileset
     000876E1  _sprite_witch_face_ur_tileset      sprite_witch_face_ur_tileset
     00087723  ___func_sprite_witch               sprite_witch
     00087723  _sprite_witch_metasprite_0         sprite_witch
     0008772F  _sprite_witch_metasprite_1         sprite_witch
     0008773B  _sprite_witch_metasprite_2         sprite_witch
     00087747  _sprite_witch_metasprite_3         sprite_witch
     00087753  _sprite_witch_metasprite_4         sprite_witch
     0008775F  _sprite_witch_metasprite_5         sprite_witch
     0008776B  _sprite_witch_metasprite_6         sprite_witch
     00087777  _sprite_witch_metasprite_7         sprite_witch
     00087783  _sprite_witch_metasprites          sprite_witch
     0008779B  _sprite_witch_animations           sprite_witch
     000877AB  _sprite_witch_animations_lookup    sprite_witch
     000877AD  _sprite_witch                      sprite_witch
     000877C0  _trigger_0_interact                trigger_0_interact
     00087802  _trigger_1_interact                trigger_1_interact
ASxxxx Linker V03.00 + NoICE + sdld,  page 72.
Hexadecimal  [32-Bits]

Area                                    Addr        Size        Decimal Bytes (Attributes)
--------------------------------        ----        ----        ------- ----- ------------
_CODE_8                             00084000    00004000 =       16384. bytes (REL,CON)

      Value  Global                              Global Defined In Module
      -----  --------------------------------   ------------------------
     00087844  _trigger_10_interact               trigger_10_interact
     00087886  _trigger_11_interact               trigger_11_interact
     000878C8  _trigger_12_interact               trigger_12_interact
     0008790A  _trigger_13_interact               trigger_13_interact
     0008794C  _trigger_14_interact               trigger_14_interact
     0008798E  _trigger_17_interact               trigger_17_interact
     000879D0  _trigger_20_interact               trigger_20_interact
     00087A12  _trigger_23_interact               trigger_23_interact
     00087A54  _trigger_24_interact               trigger_24_interact
     00087A96  _trigger_25_interact               trigger_25_interact
     00087AD8  _trigger_26_interact               trigger_26_interact
     00087B1A  _trigger_27_interact               trigger_27_interact
     00087B5C  _trigger_29_interact               trigger_29_interact
     00087B9E  _trigger_30_interact               trigger_30_interact
     00087BE0  _trigger_31_interact               trigger_31_interact
     00087C22  _trigger_35_interact               trigger_35_interact
     00087C64  _trigger_36_interact               trigger_36_interact
     00087CA6  _trigger_4_interact                trigger_4_interact
     00087CE8  _trigger_40_interact               trigger_40_interact
     00087D2A  _trigger_42_interact               trigger_42_interact
     00087D6C  _trigger_43_interact               trigger_43_interact
     00087DAE  _trigger_5_interact                trigger_5_interact
     00087DF0  _trigger_6_interact                trigger_6_interact
     00087E32  _trigger_7_interact                trigger_7_interact
     00087E74  _trigger_8_interact                trigger_8_interact
     00087EB6  _trigger_9_interact                trigger_9_interact
     00087EF8  _trigger_east_exit_interact        trigger_east_exit_interact
     00087F3A  _trigger_north_exit_interact       trigger_north_exit_interact
     00087F7C  _trigger_south_exit_interact       trigger_south_exit_interact
     00087FBE  _trigger_west_exit_interact        trigger_west_exit_interact

ASxxxx Linker V03.00 + NoICE + sdld,  page 73.
Hexadecimal  [32-Bits]

Area                                    Addr        Size        Decimal Bytes (Attributes)
--------------------------------        ----        ----        ------- ----- ------------
_HEADER_SIO0                        00000000    00000004 =           4. bytes (ABS,CON)

      Value  Global                              Global Defined In Module
      -----  --------------------------------   ------------------------
ASxxxx Linker V03.00 + NoICE + sdld,  page 74.
Hexadecimal  [32-Bits]

Area                                    Addr        Size        Decimal Bytes (Attributes)
--------------------------------        ----        ----        ------- ----- ------------
_HEADER_TIMER0                      00000000    00000004 =           4. bytes (ABS,CON)

      Value  Global                              Global Defined In Module
      -----  --------------------------------   ------------------------
ASxxxx Linker V03.00 + NoICE + sdld,  page 75.
Hexadecimal  [32-Bits]

Area                                    Addr        Size        Decimal Bytes (Attributes)
--------------------------------        ----        ----        ------- ----- ------------
_CODE_4                             00044000    00003FFF =       16383. bytes (REL,CON)

      Value  Global                              Global Defined In Module
      -----  --------------------------------   ------------------------
     00044000  _projectiles_init                  projectiles
     00044040  _projectile_launch                 projectiles
     00044449  ___func_VM_GAMEBOY                 vm_gameboy
     00044449  _vm_set_sprites_visible            vm_gameboy
     00044460  _vm_input_wait                     vm_gameboy
     00044489  _vm_context_prepare                vm_gameboy
     000444B4  _vm_input_attach                   vm_gameboy
     000444CA  _vm_input_detach                   vm_gameboy
     000444DE  _vm_input_get                      vm_gameboy
     00044512  _vm_fade                           vm_gameboy
     00044544  _vm_timer_prepare                  vm_gameboy
     0004456F  _vm_timer_set                      vm_gameboy
     0004458A  _vm_timer_stop                     vm_gameboy
     0004459E  _vm_timer_reset                    vm_gameboy
     000445B5  _vm_get_tile_xy                    vm_gameboy
     0004469E  _vm_replace_tile                   vm_gameboy
     00044747  _vm_poll                           vm_gameboy
     00044819  _vm_set_sprite_mode                vm_gameboy
     0004482D  _vm_replace_tile_xy                vm_gameboy
     0004494F  _vm_rumble                         vm_gameboy
     0004496F  _vm_load_tiles                     vm_gameboy
     00044984  _vm_load_tileset                   vm_gameboy
     00044AA1  ___func_bg_character_select_lite   bg_character_select_lite_til
     00044AA1  _bg_character_select_lite_tilese   bg_character_select_lite_til
     00045163  ___func_bg_d11_tileset             bg_d11_tileset
     00045163  _bg_d11_tileset                    bg_d11_tileset
     00045765  ___func_bg_e12_tileset             bg_e12_tileset
     00045765  _bg_e12_tileset                    bg_e12_tileset
     00045CE7  ___func_bg_f10_interior_tileset    bg_f10_interior_tileset
     00045CE7  _bg_f10_interior_tileset           bg_f10_interior_tileset
     000463C9  ___func_bg_f10_tileset             bg_f10_tileset
     000463C9  _bg_f10_tileset                    bg_f10_tileset
     00046A0B  ___func_bg_g10_tileset             bg_g10_tileset
     00046A0B  _bg_g10_tileset                    bg_g10_tileset
     0004700D  ___func_bg_minimap_tileset         bg_minimap_tileset
     0004700D  _bg_minimap_tileset                bg_minimap_tileset
     000476DF  ___func_scene_a11_sprites          scene_a11_sprites
     000476DF  _scene_a11_sprites                 scene_a11_sprites
     000476E2  _script_reposition_player          script_reposition_player
     000478F8  _topdown_init                      topdown
     0004798F  _topdown_update                    topdown

ASxxxx Linker V03.00 + NoICE + sdld,  page 76.
Hexadecimal  [32-Bits]

Area                                    Addr        Size        Decimal Bytes (Attributes)
--------------------------------        ----        ----        ------- ----- ------------
_CODE_2                             00024000    00004000 =       16384. bytes (REL,CON)

      Value  Global                              Global Defined In Module
      -----  --------------------------------   ------------------------
     00024000  ___func_VM_ACTOR                   vm_actor
     00024000  _vm_actor_move_to                  vm_actor
     0002499D  _vm_actor_move_cancel              vm_actor
     000249D3  _vm_actor_activate                 vm_actor
     00024A25  _vm_actor_deactivate               vm_actor
     00024A76  _vm_actor_terminate_update         vm_actor
     00024ABD  _vm_actor_set_dir                  vm_actor
     00024B06  _vm_actor_set_anim                 vm_actor
     00024B93  _vm_actor_set_pos                  vm_actor
     00024C0D  _vm_actor_get_pos                  vm_actor
     00024C7C  _vm_actor_get_dir                  vm_actor
     00024CF6  _vm_actor_get_angle                vm_actor
     00024D77  _vm_actor_emote                    vm_actor
     00024E3B  _vm_actor_set_bounds               vm_actor
     00024E99  _vm_actor_set_spritesheet          vm_actor
     00024F68  _vm_actor_replace_tile             vm_actor
     00024FD2  _vm_actor_set_anim_tick            vm_actor
     00025010  _vm_actor_set_move_speed           vm_actor
     0002504E  _vm_actor_set_anim_frame           vm_actor
     00025092  _vm_actor_get_anim_frame           vm_actor
     000250DB  _vm_actor_set_anim_set             vm_actor
     00025168  _vm_actor_set_spritesheet_by_ref   vm_actor
     00025276  _vm_actor_set_flags                vm_actor
     00025324  ___func_VM_MAIN                    vm
     00025324  _vm_call                           vm
     00025366  _vm_ret                            vm
     000253C5  _vm_call_far                       vm
     00025442  _vm_ret_far                        vm
     000254B1  _vm_push                           vm
     000254DB  _vm_pop                            vm
     00025516  _vm_loop                           vm
     000255A3  _vm_jump                           vm
     000255AF  _wait_frames                       vm
     00025626  _vm_invoke                         vm
     00025752  _vm_join                           vm
     000257AB  _vm_terminate                      vm
     000257D8  _vm_if                             vm
     0002591C  _vm_if_const                       vm
     00025A30  _vm_push_value                     vm
     00025A82  _vm_push_value_ind                 vm
     00025AF7  _vm_push_reference                 vm
     00025B4E  _vm_reserve                        vm
     00025B7B  _vm_set                            vm
     00025BDC  _vm_set_const                      vm
     00025C08  _vm_get_tlocal                     vm
     00025C95  _vm_test_terminate                 vm
     00025CA0  _vm_idle                           vm
     00025CAC  _vm_get_uint8                      vm
     00025CDF  _vm_get_int8                       vm
     00025D13  _vm_get_int16                      vm
ASxxxx Linker V03.00 + NoICE + sdld,  page 77.
Hexadecimal  [32-Bits]

Area                                    Addr        Size        Decimal Bytes (Attributes)
--------------------------------        ----        ----        ------- ----- ------------
_CODE_2                             00024000    00004000 =       16384. bytes (REL,CON)

      Value  Global                              Global Defined In Module
      -----  --------------------------------   ------------------------
     00025D55  _vm_set_uint8                      vm
     00025D81  _vm_set_int8                       vm
     00025DAD  _vm_set_int16                      vm
     00025DEC  _vm_set_const_int8                 vm
     00025DF5  _vm_set_const_int16                vm
     00025E01  _vm_init_rng                       vm
     00025E2D  _vm_rand                           vm
     00025EB2  _vm_lock                           vm
     00025EC1  _vm_unlock                         vm
     00025ED4  _vm_raise                          vm
     00025F16  _vm_set_indirect                   vm
     00025F91  _vm_get_indirect                   vm
     0002600C  _vm_poll_loaded                    vm
     0002603B  _vm_memset                         vm
     00026080  _vm_memcpy                         vm
     00026100  _script_runner_init                vm
     000261BC  _script_execute                    vm
     00026301  _script_terminate                  vm
     00026367  _script_detach_hthread             vm
     000263A4  ___func_bg_a11_tileset             bg_a11_tileset
     000263A4  _bg_a11_tileset                    bg_a11_tileset
     00026C46  _scene_date_init                   scene_date_init
     00026C95  _script_player_damage              script_player_damage
     00026EC6  _platform_init                     platform
     0002707D  _platform_update                   platform
ASxxxx Linker V03.00 + NoICE + sdld,  page 78.
Hexadecimal  [32-Bits]

Area                                    Addr        Size        Decimal Bytes (Attributes)
--------------------------------        ----        ----        ------- ----- ------------
_CODE_7                             00074000    00003FFF =       16383. bytes (REL,CON)

      Value  Global                              Global Defined In Module
      -----  --------------------------------   ------------------------
     00074000  _actor_4_interact                  actor_4_interact
     000740B4  ___func_bg_backpacker_status_til   bg_backpacker_status_tilemap
     000740B4  _bg_backpacker_status_tilemap_at   bg_backpacker_status_tilemap
     0007421C  ___func_bg_backpacker_status_til   bg_backpacker_status_tilemap
     0007421C  _bg_backpacker_status_tilemap      bg_backpacker_status_tilemap
     00074384  ___func_bg_backpacker_status_til   bg_backpacker_status_tileset
     00074384  _bg_backpacker_status_tileset      bg_backpacker_status_tileset
     00074516  ___func_bg_character_select_lite   bg_character_select_lite_til
     00074516  _bg_character_select_lite_tilema   bg_character_select_lite_til
     0007467E  ___func_bg_character_select_lite   bg_character_select_lite_til
     0007467E  _bg_character_select_lite_tilema   bg_character_select_lite_til
     000747E6  ___func_bg_date_tilemap            bg_date_tilemap
     000747E6  _bg_date_tilemap                   bg_date_tilemap
     0007494E  ___func_bg_e10_tilemap             bg_e10_tilemap
     0007494E  _bg_e10_tilemap                    bg_e10_tilemap
     00074B2E  ___func_bg_e11_tilemap             bg_e11_tilemap
     00074B2E  _bg_e11_tilemap                    bg_e11_tilemap
     00074D0E  ___func_bg_e12_tilemap             bg_e12_tilemap
     00074D0E  _bg_e12_tilemap                    bg_e12_tilemap
     00074EEE  ___func_bg_f10_interior_tilemap    bg_f10_interior_tilemap
     00074EEE  _bg_f10_interior_tilemap           bg_f10_interior_tilemap
     000750CE  ___func_bg_f10_tilemap             bg_f10_tilemap
     000750CE  _bg_f10_tilemap                    bg_f10_tilemap
     000752AE  ___func_bg_f11_tilemap             bg_f11_tilemap
     000752AE  _bg_f11_tilemap                    bg_f11_tilemap
     0007548E  ___func_bg_g10_tilemap             bg_g10_tilemap
     0007548E  _bg_g10_tilemap                    bg_g10_tilemap
     0007566E  ___func_bg_lost_to_newport_title   bg_lost_to_newport_titlescr_
     0007566E  _bg_lost_to_newport_titlescr_til   bg_lost_to_newport_titlescr_
     000757D6  ___func_bg_map_template_tilemap    bg_map_template_tilemap
     000757D6  _bg_map_template_tilemap           bg_map_template_tilemap
     000759B6  ___func_bg_minimap_tilemap_attr    bg_minimap_tilemap_attr
     000759B6  _bg_minimap_tilemap_attr           bg_minimap_tilemap_attr
     00075B1E  ___func_bg_minimap_tilemap         bg_minimap_tilemap
     00075B1E  _bg_minimap_tilemap                bg_minimap_tilemap
     00075C86  ___func_scene_a11_collisions       scene_a11_collisions
     00075C86  _scene_a11_collisions              scene_a11_collisions
     00075E66  ___func_scene_character_select_c   scene_character_select_colli
     00075E66  _scene_character_select_collisio   scene_character_select_colli
     00075FCE  ___func_scene_d10_collisions       scene_d10_collisions
     00075FCE  _scene_d10_collisions              scene_d10_collisions
     000761AE  ___func_scene_d11_collisions       scene_d11_collisions
     000761AE  _scene_d11_collisions              scene_d11_collisions
     0007638E  ___func_scene_d12_collisions       scene_d12_collisions
     0007638E  _scene_d12_collisions              scene_d12_collisions
     0007656E  ___func_scene_date_collisions      scene_date_collisions
     0007656E  _scene_date_collisions             scene_date_collisions
     000766D6  ___func_scene_e10_collisions       scene_e10_collisions
     000766D6  _scene_e10_collisions              scene_e10_collisions
     000768B6  ___func_scene_e11_collisions       scene_e11_collisions
ASxxxx Linker V03.00 + NoICE + sdld,  page 79.
Hexadecimal  [32-Bits]

Area                                    Addr        Size        Decimal Bytes (Attributes)
--------------------------------        ----        ----        ------- ----- ------------
_CODE_7                             00074000    00003FFF =       16383. bytes (REL,CON)

      Value  Global                              Global Defined In Module
      -----  --------------------------------   ------------------------
     000768B6  _scene_e11_collisions              scene_e11_collisions
     00076A96  ___func_scene_e12_collisions       scene_e12_collisions
     00076A96  _scene_e12_collisions              scene_e12_collisions
     00076C76  ___func_scene_f10_collisions       scene_f10_collisions
     00076C76  _scene_f10_collisions              scene_f10_collisions
     00076E56  ___func_scene_f10_interior_colli   scene_f10_interior_collision
     00076E56  _scene_f10_interior_collisions     scene_f10_interior_collision
     00077036  ___func_scene_f11_collisions       scene_f11_collisions
     00077036  _scene_f11_collisions              scene_f11_collisions
     00077216  ___func_scene_g10_collisions       scene_g10_collisions
     00077216  _scene_g10_collisions              scene_g10_collisions
     000773F6  ___func_scene_minimap_collisions   scene_minimap_collisions
     000773F6  _scene_minimap_collisions          scene_minimap_collisions
     0007755E  ___func_scene_scene_template_col   scene_scene_template_collisi
     0007755E  _scene_scene_template_collisions   scene_scene_template_collisi
     0007773E  ___func_scene_scene_template_spr   scene_scene_template_sprites
     0007773E  _scene_scene_template_sprites      scene_scene_template_sprites
     00077747  ___func_scene_status_collisions    scene_status_collisions
     00077747  _scene_status_collisions           scene_status_collisions
     000778AF  ___func_scene_title_screen_colli   scene_title_screen_collision
     000778AF  _scene_title_screen_collisions     scene_title_screen_collision
     00077A17  ___func_sprite_backpacker_tilese   sprite_backpacker_tileset
     00077A17  _sprite_backpacker_tileset         sprite_backpacker_tileset
     00077B79  ___func_sprite_conspiracy_theori   sprite_conspiracy_theorist_t
     00077B79  _sprite_conspiracy_theorist_tile   sprite_conspiracy_theorist_t
     00077CFB  ___func_sprite_vagrant_tileset     sprite_vagrant_tileset
     00077CFB  _sprite_vagrant_tileset            sprite_vagrant_tileset
     00077E7D  ___func_sprite_witch_tileset       sprite_witch_tileset
     00077E7D  _sprite_witch_tileset              sprite_witch_tileset

ASxxxx Linker V03.00 + NoICE + sdld,  page 80.
Hexadecimal  [32-Bits]

Area                                    Addr        Size        Decimal Bytes (Attributes)
--------------------------------        ----        ----        ------- ----- ------------
_HEADER_LCD0                        00000000    00000003 =           3. bytes (ABS,CON)

      Value  Global                              Global Defined In Module
      -----  --------------------------------   ------------------------
ASxxxx Linker V03.00 + NoICE + sdld,  page 81.

Files Linked                              [ module(s) ]

C:\Users\Dingus\AppData\Local\Temp/_gbstools/gbdk/lib/small/asxxxx/gb/crt0.o
                                          [ Runtime ]
C:/Users/Dingus/AppData/Local/Temp/_gbsbuild/obj/___sdcc_bcall_ehl.rel
                                          [  ]
C:/Users/Dingus/AppData/Local/Temp/_gbsbuild/obj/absolute.rel
                                          [ absolute ]
C:/Users/Dingus/AppData/Local/Temp/_gbsbuild/obj/actor.rel
                                          [ actor ]
C:/Users/Dingus/AppData/Local/Temp/_gbsbuild/obj/bankdata.rel
                                          [ bankdata ]
C:/Users/Dingus/AppData/Local/Temp/_gbsbuild/obj/bootstrap.rel
                                          [  ]
C:/Users/Dingus/AppData/Local/Temp/_gbsbuild/obj/camera.rel
                                          [ camera ]
C:/Users/Dingus/AppData/Local/Temp/_gbsbuild/obj/core.rel
                                          [ core ]
C:/Users/Dingus/AppData/Local/Temp/_gbsbuild/obj/crash_handler.rel
                                          [  ]
C:/Users/Dingus/AppData/Local/Temp/_gbsbuild/obj/data_manager.rel
                                          [ data_manager ]
C:/Users/Dingus/AppData/Local/Temp/_gbsbuild/obj/events.rel
                                          [ events ]
C:/Users/Dingus/AppData/Local/Temp/_gbsbuild/obj/fade_manager.rel
                                          [ fade_manager ]
C:/Users/Dingus/AppData/Local/Temp/_gbsbuild/obj/flasher_s.rel
                                          [  ]
C:/Users/Dingus/AppData/Local/Temp/_gbsbuild/obj/flasher.rel
                                          [ flasher ]
C:/Users/Dingus/AppData/Local/Temp/_gbsbuild/obj/game_time.rel
                                          [ game_time ]
C:/Users/Dingus/AppData/Local/Temp/_gbsbuild/obj/gbprinter.rel
                                          [ gbprinter ]
C:/Users/Dingus/AppData/Local/Temp/_gbsbuild/obj/input.rel
                                          [ input ]
C:/Users/Dingus/AppData/Local/Temp/_gbsbuild/obj/interrupt_sio.rel
                                          [  ]
C:/Users/Dingus/AppData/Local/Temp/_gbsbuild/obj/interrupt_timer.rel
                                          [  ]
C:/Users/Dingus/AppData/Local/Temp/_gbsbuild/obj/interrupts.rel
                                          [ interrupts ]
C:/Users/Dingus/AppData/Local/Temp/_gbsbuild/obj/load_save.rel
                                          [ load_save ]
C:/Users/Dingus/AppData/Local/Temp/_gbsbuild/obj/math.rel
                                          [ math ]
C:/Users/Dingus/AppData/Local/Temp/_gbsbuild/obj/music_manager.rel
                                          [ music_manager ]
C:/Users/Dingus/AppData/Local/Temp/_gbsbuild/obj/palette.rel
                                          [ palette ]
C:/Users/Dingus/AppData/Local/Temp/_gbsbuild/obj/parallax.rel
                                          [ parallax ]
C:/Users/Dingus/AppData/Local/Temp/_gbsbuild/obj/projectiles.rel
                                          [ projectiles ]
C:/Users/Dingus/AppData/Local/Temp/_gbsbuild/obj/scroll_a.rel
                                          [  ]
C:/Users/Dingus/AppData/Local/Temp/_gbsbuild/obj/scroll.rel
                                          [ scroll ]
C:/Users/Dingus/AppData/Local/Temp/_gbsbuild/obj/set_tile_submap.rel
                                          [  ]
C:/Users/Dingus/AppData/Local/Temp/_gbsbuild/obj/sfx_player.rel
                                          [ sfx_player ]
C:/Users/Dingus/AppData/Local/Temp/_gbsbuild/obj/sgb_border.rel
                                          [ sgb_border ]
C:/Users/Dingus/AppData/Local/Temp/_gbsbuild/obj/sio.rel
                                          [ sio ]
C:/Users/Dingus/AppData/Local/Temp/_gbsbuild/obj/states_caller.rel
                                          [  ]
C:/Users/Dingus/AppData/Local/Temp/_gbsbuild/obj/system.rel
                                          [ system ]
C:/Users/Dingus/AppData/Local/Temp/_gbsbuild/obj/trigger.rel
                                          [ trigger ]
C:/Users/Dingus/AppData/Local/Temp/_gbsbuild/obj/ui_a.rel
                                          [  ]
C:/Users/Dingus/AppData/Local/Temp/_gbsbuild/obj/ui.rel
                                          [ ui ]
C:/Users/Dingus/AppData/Local/Temp/_gbsbuild/obj/vm_actor.rel
                                          [ vm_actor ]
C:/Users/Dingus/AppData/Local/Temp/_gbsbuild/obj/vm_camera.rel
                                          [ vm_camera ]
C:/Users/Dingus/AppData/Local/Temp/_gbsbuild/obj/vm_gameboy.rel
                                          [ vm_gameboy ]
C:/Users/Dingus/AppData/Local/Temp/_gbsbuild/obj/vm_gbprinter.rel
                                          [ vm_gbprinter ]
C:/Users/Dingus/AppData/Local/Temp/_gbsbuild/obj/vm_instructions.rel
                                          [ vm_instructions ]
C:/Users/Dingus/AppData/Local/Temp/_gbsbuild/obj/vm_load_save.rel
                                          [ vm_load_save ]
C:/Users/Dingus/AppData/Local/Temp/_gbsbuild/obj/vm_math.rel
                                          [ vm_math ]
C:/Users/Dingus/AppData/Local/Temp/_gbsbuild/obj/vm_music.rel
                                          [ vm_music ]
C:/Users/Dingus/AppData/Local/Temp/_gbsbuild/obj/vm_palette.rel
                                          [ vm_palette ]
C:/Users/Dingus/AppData/Local/Temp/_gbsbuild/obj/vm_projectiles.rel
                                          [ vm_projectiles ]
C:/Users/Dingus/AppData/Local/Temp/_gbsbuild/obj/vm_rtc.rel
                                          [ vm_rtc ]
C:/Users/Dingus/AppData/Local/Temp/_gbsbuild/obj/vm_scene.rel
                                          [ vm_scene ]
C:/Users/Dingus/AppData/Local/Temp/_gbsbuild/obj/vm_sgb.rel
                                          [ vm_sgb ]
C:/Users/Dingus/AppData/Local/Temp/_gbsbuild/obj/vm_sio.rel
                                          [ vm_sio ]
C:/Users/Dingus/AppData/Local/Temp/_gbsbuild/obj/vm_ui_a.rel
                                          [ vm_ui_a ]
C:/Users/Dingus/AppData/Local/Temp/_gbsbuild/obj/vm_ui.rel
                                          [ vm_ui ]
C:/Users/Dingus/AppData/Local/Temp/_gbsbuild/obj/vm.rel
                                          [ vm ]
C:/Users/Dingus/AppData/Local/Temp/_gbsbuild/obj/actor_0_interact.rel
                                          [ actor_0_interact ]
C:/Users/Dingus/AppData/Local/Temp/_gbsbuild/obj/actor_1_interact.rel
                                          [ actor_1_interact ]
C:/Users/Dingus/AppData/Local/Temp/_gbsbuild/obj/actor_1_update.rel
                                          [ actor_1_update ]
C:/Users/Dingus/AppData/Local/Temp/_gbsbuild/obj/actor_2_interact.rel
                                          [ actor_2_interact ]
C:/Users/Dingus/AppData/Local/Temp/_gbsbuild/obj/actor_3_interact.rel
                                          [ actor_3_interact ]
C:/Users/Dingus/AppData/Local/Temp/_gbsbuild/obj/actor_4_interact.rel
                                          [ actor_4_interact ]
C:/Users/Dingus/AppData/Local/Temp/_gbsbuild/obj/actor_5_interact.rel
                                          [ actor_5_interact ]
C:/Users/Dingus/AppData/Local/Temp/_gbsbuild/obj/actor_6_update.rel
                                          [ actor_6_update ]
C:/Users/Dingus/AppData/Local/Temp/_gbsbuild/obj/actor_cat_interact.rel
                                          [ actor_cat_interact ]
C:/Users/Dingus/AppData/Local/Temp/_gbsbuild/obj/actor_cat_update.rel
                                          [ actor_cat_update ]
C:/Users/Dingus/AppData/Local/Temp/_gbsbuild/obj/actor_clock_0_update.rel
                                          [ actor_clock_0_update ]
C:/Users/Dingus/AppData/Local/Temp/_gbsbuild/obj/actor_clock_1_update.rel
                                          [ actor_clock_1_update ]
C:/Users/Dingus/AppData/Local/Temp/_gbsbuild/obj/actor_clock_2_update.rel
                                          [ actor_clock_2_update ]
C:/Users/Dingus/AppData/Local/Temp/_gbsbuild/obj/actor_clock_3_update.rel
                                          [ actor_clock_3_update ]
C:/Users/Dingus/AppData/Local/Temp/_gbsbuild/obj/actor_clock_4_update.rel
                                          [ actor_clock_4_update ]
C:/Users/Dingus/AppData/Local/Temp/_gbsbuild/obj/actor_clock_5_update.rel
                                          [ actor_clock_5_update ]
C:/Users/Dingus/AppData/Local/Temp/_gbsbuild/obj/actor_clock_6_update.rel
                                          [ actor_clock_6_update ]
C:/Users/Dingus/AppData/Local/Temp/_gbsbuild/obj/actor_clock_7_update.rel
                                          [ actor_clock_7_update ]
C:/Users/Dingus/AppData/Local/Temp/_gbsbuild/obj/actor_clock_8_update.rel
                                          [ actor_clock_8_update ]
C:/Users/Dingus/AppData/Local/Temp/_gbsbuild/obj/actor_clock_9_update.rel
                                          [ actor_clock_9_update ]
C:/Users/Dingus/AppData/Local/Temp/_gbsbuild/obj/actor_clock_update.rel
                                          [ actor_clock_update ]
C:/Users/Dingus/AppData/Local/Temp/_gbsbuild/obj/actor_door_interact.rel
                                          [ actor_door_interact ]
C:/Users/Dingus/AppData/Local/Temp/_gbsbuild/obj/actor_duck_update.rel
                                          [ actor_duck_update ]
C:/Users/Dingus/AppData/Local/Temp/_gbsbuild/obj/actor_health_indicator_0_update.rel
                                          [ actor_health_indicator_0_update ]
C:/Users/Dingus/AppData/Local/Temp/_gbsbuild/obj/actor_health_indicator_1_update.rel
                                          [ actor_health_indicator_1_update ]
C:/Users/Dingus/AppData/Local/Temp/_gbsbuild/obj/actor_health_indicator_2_update.rel
                                          [ actor_health_indicator_2_update ]
C:/Users/Dingus/AppData/Local/Temp/_gbsbuild/obj/actor_health_indicator_3_update.rel
                                          [ actor_health_indicator_3_update ]
C:/Users/Dingus/AppData/Local/Temp/_gbsbuild/obj/actor_health_indicator_4_update.rel
                                          [ actor_health_indicator_4_update ]
C:/Users/Dingus/AppData/Local/Temp/_gbsbuild/obj/actor_health_indicator_5_update.rel
                                          [ actor_health_indicator_5_update ]
C:/Users/Dingus/AppData/Local/Temp/_gbsbuild/obj/actor_health_indicator_6_update.rel
                                          [ actor_health_indicator_6_update ]
C:/Users/Dingus/AppData/Local/Temp/_gbsbuild/obj/actor_health_indicator_7_update.rel
                                          [ actor_health_indicator_7_update ]
C:/Users/Dingus/AppData/Local/Temp/_gbsbuild/obj/actor_health_indicator_8_update.rel
                                          [ actor_health_indicator_8_update ]
C:/Users/Dingus/AppData/Local/Temp/_gbsbuild/obj/actor_health_indicator_9_update.rel
                                          [ actor_health_indicator_9_update ]
C:/Users/Dingus/AppData/Local/Temp/_gbsbuild/obj/actor_health_indicator_update.rel
                                          [ actor_health_indicator_update ]
C:/Users/Dingus/AppData/Local/Temp/_gbsbuild/obj/actor_item_a_0_update.rel
                                          [ actor_item_a_0_update ]
C:/Users/Dingus/AppData/Local/Temp/_gbsbuild/obj/actor_item_a_update.rel
                                          [ actor_item_a_update ]
C:/Users/Dingus/AppData/Local/Temp/_gbsbuild/obj/actor_item_b_0_update.rel
                                          [ actor_item_b_0_update ]
C:/Users/Dingus/AppData/Local/Temp/_gbsbuild/obj/actor_item_b_update.rel
                                          [ actor_item_b_update ]
C:/Users/Dingus/AppData/Local/Temp/_gbsbuild/obj/actor_ul_update.rel
                                          [ actor_ul_update ]
C:/Users/Dingus/AppData/Local/Temp/_gbsbuild/obj/bg_a11_tilemap_attr.rel
                                          [ bg_a11_tilemap_attr ]
C:/Users/Dingus/AppData/Local/Temp/_gbsbuild/obj/bg_a11_tilemap.rel
                                          [ bg_a11_tilemap ]
C:/Users/Dingus/AppData/Local/Temp/_gbsbuild/obj/bg_a11_tileset.rel
                                          [ bg_a11_tileset ]
C:/Users/Dingus/AppData/Local/Temp/_gbsbuild/obj/bg_a11.rel
                                          [ bg_a11 ]
C:/Users/Dingus/AppData/Local/Temp/_gbsbuild/obj/bg_b_c11_alt_tilemap_attr.rel
                                          [ bg_b_c11_alt_tilemap_attr ]
C:/Users/Dingus/AppData/Local/Temp/_gbsbuild/obj/bg_b_c11_alt_tilemap.rel
                                          [ bg_b_c11_alt_tilemap ]
C:/Users/Dingus/AppData/Local/Temp/_gbsbuild/obj/bg_b_c11_alt_tileset.rel
                                          [ bg_b_c11_alt_tileset ]
C:/Users/Dingus/AppData/Local/Temp/_gbsbuild/obj/bg_b_c11_alt.rel
                                          [ bg_b_c11_alt ]
C:/Users/Dingus/AppData/Local/Temp/_gbsbuild/obj/bg_b_c11_tilemap.rel
                                          [ bg_b_c11_tilemap ]
C:/Users/Dingus/AppData/Local/Temp/_gbsbuild/obj/bg_b_c11_tileset.rel
                                          [ bg_b_c11_tileset ]
C:/Users/Dingus/AppData/Local/Temp/_gbsbuild/obj/bg_b_c11.rel
                                          [ bg_b_c11 ]
C:/Users/Dingus/AppData/Local/Temp/_gbsbuild/obj/bg_backpacker_status_tilemap_attr.rel
                                          [ bg_backpacker_status_tilemap_att ]
C:/Users/Dingus/AppData/Local/Temp/_gbsbuild/obj/bg_backpacker_status_tilemap.rel
                                          [ bg_backpacker_status_tilemap ]
C:/Users/Dingus/AppData/Local/Temp/_gbsbuild/obj/bg_backpacker_status_tileset.rel
                                          [ bg_backpacker_status_tileset ]
C:/Users/Dingus/AppData/Local/Temp/_gbsbuild/obj/bg_backpacker_status.rel
                                          [ bg_backpacker_status ]
C:/Users/Dingus/AppData/Local/Temp/_gbsbuild/obj/bg_character_select_lite_tilemap_attr.rel
                                          [ bg_character_select_lite_tilemap ]
C:/Users/Dingus/AppData/Local/Temp/_gbsbuild/obj/bg_character_select_lite_tilemap.rel
                                          [ bg_character_select_lite_tilemap ]
C:/Users/Dingus/AppData/Local/Temp/_gbsbuild/obj/bg_character_select_lite_tileset.rel
                                          [ bg_character_select_lite_tileset ]
C:/Users/Dingus/AppData/Local/Temp/_gbsbuild/obj/bg_character_select_lite.rel
                                          [ bg_character_select_lite ]
C:/Users/Dingus/AppData/Local/Temp/_gbsbuild/obj/bg_d10_tilemap.rel
                                          [ bg_d10_tilemap ]
C:/Users/Dingus/AppData/Local/Temp/_gbsbuild/obj/bg_d10_tileset.rel
                                          [ bg_d10_tileset ]
C:/Users/Dingus/AppData/Local/Temp/_gbsbuild/obj/bg_d10.rel
                                          [ bg_d10 ]
C:/Users/Dingus/AppData/Local/Temp/_gbsbuild/obj/bg_d11_tilemap.rel
                                          [ bg_d11_tilemap ]
C:/Users/Dingus/AppData/Local/Temp/_gbsbuild/obj/bg_d11_tileset.rel
                                          [ bg_d11_tileset ]
C:/Users/Dingus/AppData/Local/Temp/_gbsbuild/obj/bg_d11.rel
                                          [ bg_d11 ]
C:/Users/Dingus/AppData/Local/Temp/_gbsbuild/obj/bg_d12_tilemap.rel
                                          [ bg_d12_tilemap ]
C:/Users/Dingus/AppData/Local/Temp/_gbsbuild/obj/bg_d12_tileset.rel
                                          [ bg_d12_tileset ]
C:/Users/Dingus/AppData/Local/Temp/_gbsbuild/obj/bg_d12.rel
                                          [ bg_d12 ]
C:/Users/Dingus/AppData/Local/Temp/_gbsbuild/obj/bg_date_tilemap.rel
                                          [ bg_date_tilemap ]
C:/Users/Dingus/AppData/Local/Temp/_gbsbuild/obj/bg_date_tileset.rel
                                          [ bg_date_tileset ]
C:/Users/Dingus/AppData/Local/Temp/_gbsbuild/obj/bg_date.rel
                                          [ bg_date ]
C:/Users/Dingus/AppData/Local/Temp/_gbsbuild/obj/bg_e10_tilemap.rel
                                          [ bg_e10_tilemap ]
C:/Users/Dingus/AppData/Local/Temp/_gbsbuild/obj/bg_e10_tileset.rel
                                          [ bg_e10_tileset ]
C:/Users/Dingus/AppData/Local/Temp/_gbsbuild/obj/bg_e10.rel
                                          [ bg_e10 ]
C:/Users/Dingus/AppData/Local/Temp/_gbsbuild/obj/bg_e11_tilemap.rel
                                          [ bg_e11_tilemap ]
C:/Users/Dingus/AppData/Local/Temp/_gbsbuild/obj/bg_e11_tileset.rel
                                          [ bg_e11_tileset ]
C:/Users/Dingus/AppData/Local/Temp/_gbsbuild/obj/bg_e11.rel
                                          [ bg_e11 ]
C:/Users/Dingus/AppData/Local/Temp/_gbsbuild/obj/bg_e12_tilemap.rel
                                          [ bg_e12_tilemap ]
C:/Users/Dingus/AppData/Local/Temp/_gbsbuild/obj/bg_e12_tileset.rel
                                          [ bg_e12_tileset ]
C:/Users/Dingus/AppData/Local/Temp/_gbsbuild/obj/bg_e12.rel
                                          [ bg_e12 ]
C:/Users/Dingus/AppData/Local/Temp/_gbsbuild/obj/bg_f10_interior_tilemap.rel
                                          [ bg_f10_interior_tilemap ]
C:/Users/Dingus/AppData/Local/Temp/_gbsbuild/obj/bg_f10_interior_tileset.rel
                                          [ bg_f10_interior_tileset ]
C:/Users/Dingus/AppData/Local/Temp/_gbsbuild/obj/bg_f10_interior.rel
                                          [ bg_f10_interior ]
C:/Users/Dingus/AppData/Local/Temp/_gbsbuild/obj/bg_f10_tilemap.rel
                                          [ bg_f10_tilemap ]
C:/Users/Dingus/AppData/Local/Temp/_gbsbuild/obj/bg_f10_tileset.rel
                                          [ bg_f10_tileset ]
C:/Users/Dingus/AppData/Local/Temp/_gbsbuild/obj/bg_f10.rel
                                          [ bg_f10 ]
C:/Users/Dingus/AppData/Local/Temp/_gbsbuild/obj/bg_f11_tilemap.rel
                                          [ bg_f11_tilemap ]
C:/Users/Dingus/AppData/Local/Temp/_gbsbuild/obj/bg_f11_tileset.rel
                                          [ bg_f11_tileset ]
C:/Users/Dingus/AppData/Local/Temp/_gbsbuild/obj/bg_f11.rel
                                          [ bg_f11 ]
C:/Users/Dingus/AppData/Local/Temp/_gbsbuild/obj/bg_g10_tilemap.rel
                                          [ bg_g10_tilemap ]
C:/Users/Dingus/AppData/Local/Temp/_gbsbuild/obj/bg_g10_tileset.rel
                                          [ bg_g10_tileset ]
C:/Users/Dingus/AppData/Local/Temp/_gbsbuild/obj/bg_g10.rel
                                          [ bg_g10 ]
C:/Users/Dingus/AppData/Local/Temp/_gbsbuild/obj/bg_lost_to_newport_titlescr_tilemap.rel
                                          [ bg_lost_to_newport_titlescr_tile ]
C:/Users/Dingus/AppData/Local/Temp/_gbsbuild/obj/bg_lost_to_newport_titlescr_tileset.rel
                                          [ bg_lost_to_newport_titlescr_tile ]
C:/Users/Dingus/AppData/Local/Temp/_gbsbuild/obj/bg_lost_to_newport_titlescr.rel
                                          [ bg_lost_to_newport_titlescr ]
C:/Users/Dingus/AppData/Local/Temp/_gbsbuild/obj/bg_map_template_tilemap.rel
                                          [ bg_map_template_tilemap ]
C:/Users/Dingus/AppData/Local/Temp/_gbsbuild/obj/bg_map_template_tileset.rel
                                          [ bg_map_template_tileset ]
C:/Users/Dingus/AppData/Local/Temp/_gbsbuild/obj/bg_map_template.rel
                                          [ bg_map_template ]
C:/Users/Dingus/AppData/Local/Temp/_gbsbuild/obj/bg_minimap_tilemap_attr.rel
                                          [ bg_minimap_tilemap_attr ]
C:/Users/Dingus/AppData/Local/Temp/_gbsbuild/obj/bg_minimap_tilemap.rel
                                          [ bg_minimap_tilemap ]
C:/Users/Dingus/AppData/Local/Temp/_gbsbuild/obj/bg_minimap_tileset.rel
                                          [ bg_minimap_tileset ]
C:/Users/Dingus/AppData/Local/Temp/_gbsbuild/obj/bg_minimap.rel
                                          [ bg_minimap ]
C:/Users/Dingus/AppData/Local/Temp/_gbsbuild/obj/border.rel
                                          [ border ]
C:/Users/Dingus/AppData/Local/Temp/_gbsbuild/obj/cursor_image.rel
                                          [ cursor_image ]
C:/Users/Dingus/AppData/Local/Temp/_gbsbuild/obj/emote_shock.rel
                                          [ emote_shock ]
C:/Users/Dingus/AppData/Local/Temp/_gbsbuild/obj/font_gbs_variable_width.rel
                                          [ font_gbs_variable_width ]
C:/Users/Dingus/AppData/Local/Temp/_gbsbuild/obj/frame_image.rel
                                          [ frame_image ]
C:/Users/Dingus/AppData/Local/Temp/_gbsbuild/obj/game_signature.rel
                                          [ game_signature ]
C:/Users/Dingus/AppData/Local/Temp/_gbsbuild/obj/song_song_template_1_Data.rel
                                          [ song_song_template_1_Data ]
C:/Users/Dingus/AppData/Local/Temp/_gbsbuild/obj/palette_0.rel
                                          [ palette_0 ]
C:/Users/Dingus/AppData/Local/Temp/_gbsbuild/obj/palette_1.rel
                                          [ palette_1 ]
C:/Users/Dingus/AppData/Local/Temp/_gbsbuild/obj/palette_2.rel
                                          [ palette_2 ]
C:/Users/Dingus/AppData/Local/Temp/_gbsbuild/obj/scene_a11_actors.rel
                                          [ scene_a11_actors ]
C:/Users/Dingus/AppData/Local/Temp/_gbsbuild/obj/scene_a11_collisions.rel
                                          [ scene_a11_collisions ]
C:/Users/Dingus/AppData/Local/Temp/_gbsbuild/obj/scene_a11_init.rel
                                          [ scene_a11_init ]
C:/Users/Dingus/AppData/Local/Temp/_gbsbuild/obj/scene_a11_sprites.rel
                                          [ scene_a11_sprites ]
C:/Users/Dingus/AppData/Local/Temp/_gbsbuild/obj/scene_a11_triggers.rel
                                          [ scene_a11_triggers ]
C:/Users/Dingus/AppData/Local/Temp/_gbsbuild/obj/scene_a11.rel
                                          [ scene_a11 ]
C:/Users/Dingus/AppData/Local/Temp/_gbsbuild/obj/scene_b_c11_actors.rel
                                          [ scene_b_c11_actors ]
C:/Users/Dingus/AppData/Local/Temp/_gbsbuild/obj/scene_b_c11_alt_actors.rel
                                          [ scene_b_c11_alt_actors ]
C:/Users/Dingus/AppData/Local/Temp/_gbsbuild/obj/scene_b_c11_alt_collisions.rel
                                          [ scene_b_c11_alt_collisions ]
C:/Users/Dingus/AppData/Local/Temp/_gbsbuild/obj/scene_b_c11_alt_init.rel
                                          [ scene_b_c11_alt_init ]
C:/Users/Dingus/AppData/Local/Temp/_gbsbuild/obj/scene_b_c11_alt_sprites.rel
                                          [ scene_b_c11_alt_sprites ]
C:/Users/Dingus/AppData/Local/Temp/_gbsbuild/obj/scene_b_c11_alt_triggers.rel
                                          [ scene_b_c11_alt_triggers ]
C:/Users/Dingus/AppData/Local/Temp/_gbsbuild/obj/scene_b_c11_alt.rel
                                          [ scene_b_c11_alt ]
C:/Users/Dingus/AppData/Local/Temp/_gbsbuild/obj/scene_b_c11_collisions.rel
                                          [ scene_b_c11_collisions ]
C:/Users/Dingus/AppData/Local/Temp/_gbsbuild/obj/scene_b_c11_init.rel
                                          [ scene_b_c11_init ]
C:/Users/Dingus/AppData/Local/Temp/_gbsbuild/obj/scene_b_c11_sprites.rel
                                          [ scene_b_c11_sprites ]
C:/Users/Dingus/AppData/Local/Temp/_gbsbuild/obj/scene_b_c11_triggers.rel
                                          [ scene_b_c11_triggers ]
C:/Users/Dingus/AppData/Local/Temp/_gbsbuild/obj/scene_b_c11.rel
                                          [ scene_b_c11 ]
C:/Users/Dingus/AppData/Local/Temp/_gbsbuild/obj/scene_character_select_actors.rel
                                          [ scene_character_select_actors ]
C:/Users/Dingus/AppData/Local/Temp/_gbsbuild/obj/scene_character_select_collisions.rel
                                          [ scene_character_select_collision ]
C:/Users/Dingus/AppData/Local/Temp/_gbsbuild/obj/scene_character_select_init.rel
                                          [ scene_character_select_init ]
C:/Users/Dingus/AppData/Local/Temp/_gbsbuild/obj/scene_character_select_sprites.rel
                                          [ scene_character_select_sprites ]
C:/Users/Dingus/AppData/Local/Temp/_gbsbuild/obj/scene_character_select.rel
                                          [ scene_character_select ]
C:/Users/Dingus/AppData/Local/Temp/_gbsbuild/obj/scene_d10_actors.rel
                                          [ scene_d10_actors ]
C:/Users/Dingus/AppData/Local/Temp/_gbsbuild/obj/scene_d10_collisions.rel
                                          [ scene_d10_collisions ]
C:/Users/Dingus/AppData/Local/Temp/_gbsbuild/obj/scene_d10_init.rel
                                          [ scene_d10_init ]
C:/Users/Dingus/AppData/Local/Temp/_gbsbuild/obj/scene_d10_sprites.rel
                                          [ scene_d10_sprites ]
C:/Users/Dingus/AppData/Local/Temp/_gbsbuild/obj/scene_d10_triggers.rel
                                          [ scene_d10_triggers ]
C:/Users/Dingus/AppData/Local/Temp/_gbsbuild/obj/scene_d10.rel
                                          [ scene_d10 ]
C:/Users/Dingus/AppData/Local/Temp/_gbsbuild/obj/scene_d11_actors.rel
                                          [ scene_d11_actors ]
C:/Users/Dingus/AppData/Local/Temp/_gbsbuild/obj/scene_d11_collisions.rel
                                          [ scene_d11_collisions ]
C:/Users/Dingus/AppData/Local/Temp/_gbsbuild/obj/scene_d11_init.rel
                                          [ scene_d11_init ]
C:/Users/Dingus/AppData/Local/Temp/_gbsbuild/obj/scene_d11_sprites.rel
                                          [ scene_d11_sprites ]
C:/Users/Dingus/AppData/Local/Temp/_gbsbuild/obj/scene_d11_triggers.rel
                                          [ scene_d11_triggers ]
C:/Users/Dingus/AppData/Local/Temp/_gbsbuild/obj/scene_d11.rel
                                          [ scene_d11 ]
C:/Users/Dingus/AppData/Local/Temp/_gbsbuild/obj/scene_d12_actors.rel
                                          [ scene_d12_actors ]
C:/Users/Dingus/AppData/Local/Temp/_gbsbuild/obj/scene_d12_collisions.rel
                                          [ scene_d12_collisions ]
C:/Users/Dingus/AppData/Local/Temp/_gbsbuild/obj/scene_d12_init.rel
                                          [ scene_d12_init ]
C:/Users/Dingus/AppData/Local/Temp/_gbsbuild/obj/scene_d12_sprites.rel
                                          [ scene_d12_sprites ]
C:/Users/Dingus/AppData/Local/Temp/_gbsbuild/obj/scene_d12_triggers.rel
                                          [ scene_d12_triggers ]
C:/Users/Dingus/AppData/Local/Temp/_gbsbuild/obj/scene_d12.rel
                                          [ scene_d12 ]
C:/Users/Dingus/AppData/Local/Temp/_gbsbuild/obj/scene_date_collisions.rel
                                          [ scene_date_collisions ]
C:/Users/Dingus/AppData/Local/Temp/_gbsbuild/obj/scene_date_init.rel
                                          [ scene_date_init ]
C:/Users/Dingus/AppData/Local/Temp/_gbsbuild/obj/scene_date.rel
                                          [ scene_date ]
C:/Users/Dingus/AppData/Local/Temp/_gbsbuild/obj/scene_e10_actors.rel
                                          [ scene_e10_actors ]
C:/Users/Dingus/AppData/Local/Temp/_gbsbuild/obj/scene_e10_collisions.rel
                                          [ scene_e10_collisions ]
C:/Users/Dingus/AppData/Local/Temp/_gbsbuild/obj/scene_e10_init.rel
                                          [ scene_e10_init ]
C:/Users/Dingus/AppData/Local/Temp/_gbsbuild/obj/scene_e10_sprites.rel
                                          [ scene_e10_sprites ]
C:/Users/Dingus/AppData/Local/Temp/_gbsbuild/obj/scene_e10_triggers.rel
                                          [ scene_e10_triggers ]
C:/Users/Dingus/AppData/Local/Temp/_gbsbuild/obj/scene_e10.rel
                                          [ scene_e10 ]
C:/Users/Dingus/AppData/Local/Temp/_gbsbuild/obj/scene_e11_actors.rel
                                          [ scene_e11_actors ]
C:/Users/Dingus/AppData/Local/Temp/_gbsbuild/obj/scene_e11_collisions.rel
                                          [ scene_e11_collisions ]
C:/Users/Dingus/AppData/Local/Temp/_gbsbuild/obj/scene_e11_init.rel
                                          [ scene_e11_init ]
C:/Users/Dingus/AppData/Local/Temp/_gbsbuild/obj/scene_e11_sprites.rel
                                          [ scene_e11_sprites ]
C:/Users/Dingus/AppData/Local/Temp/_gbsbuild/obj/scene_e11_triggers.rel
                                          [ scene_e11_triggers ]
C:/Users/Dingus/AppData/Local/Temp/_gbsbuild/obj/scene_e11.rel
                                          [ scene_e11 ]
C:/Users/Dingus/AppData/Local/Temp/_gbsbuild/obj/scene_e12_actors.rel
                                          [ scene_e12_actors ]
C:/Users/Dingus/AppData/Local/Temp/_gbsbuild/obj/scene_e12_collisions.rel
                                          [ scene_e12_collisions ]
C:/Users/Dingus/AppData/Local/Temp/_gbsbuild/obj/scene_e12_init.rel
                                          [ scene_e12_init ]
C:/Users/Dingus/AppData/Local/Temp/_gbsbuild/obj/scene_e12_sprites.rel
                                          [ scene_e12_sprites ]
C:/Users/Dingus/AppData/Local/Temp/_gbsbuild/obj/scene_e12_triggers.rel
                                          [ scene_e12_triggers ]
C:/Users/Dingus/AppData/Local/Temp/_gbsbuild/obj/scene_e12.rel
                                          [ scene_e12 ]
C:/Users/Dingus/AppData/Local/Temp/_gbsbuild/obj/scene_f10_actors.rel
                                          [ scene_f10_actors ]
C:/Users/Dingus/AppData/Local/Temp/_gbsbuild/obj/scene_f10_collisions.rel
                                          [ scene_f10_collisions ]
C:/Users/Dingus/AppData/Local/Temp/_gbsbuild/obj/scene_f10_init.rel
                                          [ scene_f10_init ]
C:/Users/Dingus/AppData/Local/Temp/_gbsbuild/obj/scene_f10_interior_actors.rel
                                          [ scene_f10_interior_actors ]
C:/Users/Dingus/AppData/Local/Temp/_gbsbuild/obj/scene_f10_interior_collisions.rel
                                          [ scene_f10_interior_collisions ]
C:/Users/Dingus/AppData/Local/Temp/_gbsbuild/obj/scene_f10_interior_init.rel
                                          [ scene_f10_interior_init ]
C:/Users/Dingus/AppData/Local/Temp/_gbsbuild/obj/scene_f10_interior_sprites.rel
                                          [ scene_f10_interior_sprites ]
C:/Users/Dingus/AppData/Local/Temp/_gbsbuild/obj/scene_f10_interior_triggers.rel
                                          [ scene_f10_interior_triggers ]
C:/Users/Dingus/AppData/Local/Temp/_gbsbuild/obj/scene_f10_interior.rel
                                          [ scene_f10_interior ]
C:/Users/Dingus/AppData/Local/Temp/_gbsbuild/obj/scene_f10_sprites.rel
                                          [ scene_f10_sprites ]
C:/Users/Dingus/AppData/Local/Temp/_gbsbuild/obj/scene_f10_triggers.rel
                                          [ scene_f10_triggers ]
C:/Users/Dingus/AppData/Local/Temp/_gbsbuild/obj/scene_f10.rel
                                          [ scene_f10 ]
C:/Users/Dingus/AppData/Local/Temp/_gbsbuild/obj/scene_f11_actors.rel
                                          [ scene_f11_actors ]
C:/Users/Dingus/AppData/Local/Temp/_gbsbuild/obj/scene_f11_collisions.rel
                                          [ scene_f11_collisions ]
C:/Users/Dingus/AppData/Local/Temp/_gbsbuild/obj/scene_f11_init.rel
                                          [ scene_f11_init ]
C:/Users/Dingus/AppData/Local/Temp/_gbsbuild/obj/scene_f11_sprites.rel
                                          [ scene_f11_sprites ]
C:/Users/Dingus/AppData/Local/Temp/_gbsbuild/obj/scene_f11_triggers.rel
                                          [ scene_f11_triggers ]
C:/Users/Dingus/AppData/Local/Temp/_gbsbuild/obj/scene_f11.rel
                                          [ scene_f11 ]
C:/Users/Dingus/AppData/Local/Temp/_gbsbuild/obj/scene_g10_actors.rel
                                          [ scene_g10_actors ]
C:/Users/Dingus/AppData/Local/Temp/_gbsbuild/obj/scene_g10_collisions.rel
                                          [ scene_g10_collisions ]
C:/Users/Dingus/AppData/Local/Temp/_gbsbuild/obj/scene_g10_init.rel
                                          [ scene_g10_init ]
C:/Users/Dingus/AppData/Local/Temp/_gbsbuild/obj/scene_g10_sprites.rel
                                          [ scene_g10_sprites ]
C:/Users/Dingus/AppData/Local/Temp/_gbsbuild/obj/scene_g10_triggers.rel
                                          [ scene_g10_triggers ]
C:/Users/Dingus/AppData/Local/Temp/_gbsbuild/obj/scene_g10.rel
                                          [ scene_g10 ]
C:/Users/Dingus/AppData/Local/Temp/_gbsbuild/obj/scene_minimap_actors.rel
                                          [ scene_minimap_actors ]
C:/Users/Dingus/AppData/Local/Temp/_gbsbuild/obj/scene_minimap_collisions.rel
                                          [ scene_minimap_collisions ]
C:/Users/Dingus/AppData/Local/Temp/_gbsbuild/obj/scene_minimap_init.rel
                                          [ scene_minimap_init ]
C:/Users/Dingus/AppData/Local/Temp/_gbsbuild/obj/scene_minimap_sprites.rel
                                          [ scene_minimap_sprites ]
C:/Users/Dingus/AppData/Local/Temp/_gbsbuild/obj/scene_minimap.rel
                                          [ scene_minimap ]
C:/Users/Dingus/AppData/Local/Temp/_gbsbuild/obj/scene_scene_template_actors.rel
                                          [ scene_scene_template_actors ]
C:/Users/Dingus/AppData/Local/Temp/_gbsbuild/obj/scene_scene_template_collisions.rel
                                          [ scene_scene_template_collisions ]
C:/Users/Dingus/AppData/Local/Temp/_gbsbuild/obj/scene_scene_template_init.rel
                                          [ scene_scene_template_init ]
C:/Users/Dingus/AppData/Local/Temp/_gbsbuild/obj/scene_scene_template_sprites.rel
                                          [ scene_scene_template_sprites ]
C:/Users/Dingus/AppData/Local/Temp/_gbsbuild/obj/scene_scene_template_triggers.rel
                                          [ scene_scene_template_triggers ]
C:/Users/Dingus/AppData/Local/Temp/_gbsbuild/obj/scene_scene_template.rel
                                          [ scene_scene_template ]
C:/Users/Dingus/AppData/Local/Temp/_gbsbuild/obj/scene_status_actors.rel
                                          [ scene_status_actors ]
C:/Users/Dingus/AppData/Local/Temp/_gbsbuild/obj/scene_status_collisions.rel
                                          [ scene_status_collisions ]
C:/Users/Dingus/AppData/Local/Temp/_gbsbuild/obj/scene_status_init.rel
                                          [ scene_status_init ]
C:/Users/Dingus/AppData/Local/Temp/_gbsbuild/obj/scene_status.rel
                                          [ scene_status ]
C:/Users/Dingus/AppData/Local/Temp/_gbsbuild/obj/scene_title_screen_collisions.rel
                                          [ scene_title_screen_collisions ]
C:/Users/Dingus/AppData/Local/Temp/_gbsbuild/obj/scene_title_screen_init.rel
                                          [ scene_title_screen_init ]
C:/Users/Dingus/AppData/Local/Temp/_gbsbuild/obj/scene_title_screen.rel
                                          [ scene_title_screen ]
C:/Users/Dingus/AppData/Local/Temp/_gbsbuild/obj/script_engine_init.rel
                                          [  ]
C:/Users/Dingus/AppData/Local/Temp/_gbsbuild/obj/script_input_0.rel
                                          [ script_input_0 ]
C:/Users/Dingus/AppData/Local/Temp/_gbsbuild/obj/script_player_damage.rel
                                          [ script_player_damage ]
C:/Users/Dingus/AppData/Local/Temp/_gbsbuild/obj/script_record_player_positi.rel
                                          [ script_record_player_positi ]
C:/Users/Dingus/AppData/Local/Temp/_gbsbuild/obj/script_reposition_player.rel
                                          [ script_reposition_player ]
C:/Users/Dingus/AppData/Local/Temp/_gbsbuild/obj/sound_legacy_0.rel
                                          [ sound_legacy_0 ]
C:/Users/Dingus/AppData/Local/Temp/_gbsbuild/obj/sound_legacy_1.rel
                                          [ sound_legacy_1 ]
C:/Users/Dingus/AppData/Local/Temp/_gbsbuild/obj/sound_legacy_2.rel
                                          [ sound_legacy_2 ]
C:/Users/Dingus/AppData/Local/Temp/_gbsbuild/obj/sound_legacy_3.rel
                                          [ sound_legacy_3 ]
C:/Users/Dingus/AppData/Local/Temp/_gbsbuild/obj/sprite_backpacker_face_ll_tileset.rel
                                          [ sprite_backpacker_face_ll_tilese ]
C:/Users/Dingus/AppData/Local/Temp/_gbsbuild/obj/sprite_backpacker_face_ll.rel
                                          [ sprite_backpacker_face_ll ]
C:/Users/Dingus/AppData/Local/Temp/_gbsbuild/obj/sprite_backpacker_face_lr_tileset.rel
                                          [ sprite_backpacker_face_lr_tilese ]
C:/Users/Dingus/AppData/Local/Temp/_gbsbuild/obj/sprite_backpacker_face_lr.rel
                                          [ sprite_backpacker_face_lr ]
C:/Users/Dingus/AppData/Local/Temp/_gbsbuild/obj/sprite_backpacker_face_ul_tileset.rel
                                          [ sprite_backpacker_face_ul_tilese ]
C:/Users/Dingus/AppData/Local/Temp/_gbsbuild/obj/sprite_backpacker_face_ul.rel
                                          [ sprite_backpacker_face_ul ]
C:/Users/Dingus/AppData/Local/Temp/_gbsbuild/obj/sprite_backpacker_face_ur_tileset.rel
                                          [ sprite_backpacker_face_ur_tilese ]
C:/Users/Dingus/AppData/Local/Temp/_gbsbuild/obj/sprite_backpacker_face_ur.rel
                                          [ sprite_backpacker_face_ur ]
C:/Users/Dingus/AppData/Local/Temp/_gbsbuild/obj/sprite_backpacker_shade_tileset.rel
                                          [ sprite_backpacker_shade_tileset ]
C:/Users/Dingus/AppData/Local/Temp/_gbsbuild/obj/sprite_backpacker_shade.rel
                                          [ sprite_backpacker_shade ]
C:/Users/Dingus/AppData/Local/Temp/_gbsbuild/obj/sprite_backpacker_tileset.rel
                                          [ sprite_backpacker_tileset ]
C:/Users/Dingus/AppData/Local/Temp/_gbsbuild/obj/sprite_backpacker.rel
                                          [ sprite_backpacker ]
C:/Users/Dingus/AppData/Local/Temp/_gbsbuild/obj/sprite_board_door_tileset.rel
                                          [ sprite_board_door_tileset ]
C:/Users/Dingus/AppData/Local/Temp/_gbsbuild/obj/sprite_board_door.rel
                                          [ sprite_board_door ]
C:/Users/Dingus/AppData/Local/Temp/_gbsbuild/obj/sprite_cat_tileset.rel
                                          [ sprite_cat_tileset ]
C:/Users/Dingus/AppData/Local/Temp/_gbsbuild/obj/sprite_cat.rel
                                          [ sprite_cat ]
C:/Users/Dingus/AppData/Local/Temp/_gbsbuild/obj/sprite_character_select_cur_tileset.rel
                                          [ sprite_character_select_cur_tile ]
C:/Users/Dingus/AppData/Local/Temp/_gbsbuild/obj/sprite_character_select_cur.rel
                                          [ sprite_character_select_cur ]
C:/Users/Dingus/AppData/Local/Temp/_gbsbuild/obj/sprite_clock_cursor_tileset.rel
                                          [ sprite_clock_cursor_tileset ]
C:/Users/Dingus/AppData/Local/Temp/_gbsbuild/obj/sprite_clock_cursor.rel
                                          [ sprite_clock_cursor ]
C:/Users/Dingus/AppData/Local/Temp/_gbsbuild/obj/sprite_conspiracy_theorist__0_tileset.rel
                                          [ sprite_conspiracy_theorist__0_ti ]
C:/Users/Dingus/AppData/Local/Temp/_gbsbuild/obj/sprite_conspiracy_theorist__0.rel
                                          [ sprite_conspiracy_theorist__0 ]
C:/Users/Dingus/AppData/Local/Temp/_gbsbuild/obj/sprite_conspiracy_theorist__1_tileset.rel
                                          [ sprite_conspiracy_theorist__1_ti ]
C:/Users/Dingus/AppData/Local/Temp/_gbsbuild/obj/sprite_conspiracy_theorist__1.rel
                                          [ sprite_conspiracy_theorist__1 ]
C:/Users/Dingus/AppData/Local/Temp/_gbsbuild/obj/sprite_conspiracy_theorist__2_tileset.rel
                                          [ sprite_conspiracy_theorist__2_ti ]
C:/Users/Dingus/AppData/Local/Temp/_gbsbuild/obj/sprite_conspiracy_theorist__2.rel
                                          [ sprite_conspiracy_theorist__2 ]
C:/Users/Dingus/AppData/Local/Temp/_gbsbuild/obj/sprite_conspiracy_theorist__3_tileset.rel
                                          [ sprite_conspiracy_theorist__3_ti ]
C:/Users/Dingus/AppData/Local/Temp/_gbsbuild/obj/sprite_conspiracy_theorist__3.rel
                                          [ sprite_conspiracy_theorist__3 ]
C:/Users/Dingus/AppData/Local/Temp/_gbsbuild/obj/sprite_conspiracy_theorist__tileset.rel
                                          [ sprite_conspiracy_theorist__tile ]
C:/Users/Dingus/AppData/Local/Temp/_gbsbuild/obj/sprite_conspiracy_theorist_.rel
                                          [ sprite_conspiracy_theorist_ ]
C:/Users/Dingus/AppData/Local/Temp/_gbsbuild/obj/sprite_conspiracy_theorist_tileset.rel
                                          [ sprite_conspiracy_theorist_tiles ]
C:/Users/Dingus/AppData/Local/Temp/_gbsbuild/obj/sprite_conspiracy_theorist.rel
                                          [ sprite_conspiracy_theorist ]
C:/Users/Dingus/AppData/Local/Temp/_gbsbuild/obj/sprite_door_tileset.rel
                                          [ sprite_door_tileset ]
C:/Users/Dingus/AppData/Local/Temp/_gbsbuild/obj/sprite_door.rel
                                          [ sprite_door ]
C:/Users/Dingus/AppData/Local/Temp/_gbsbuild/obj/sprite_duck_tileset.rel
                                          [ sprite_duck_tileset ]
C:/Users/Dingus/AppData/Local/Temp/_gbsbuild/obj/sprite_duck.rel
                                          [ sprite_duck ]
C:/Users/Dingus/AppData/Local/Temp/_gbsbuild/obj/sprite_health0_tileset.rel
                                          [ sprite_health0_tileset ]
C:/Users/Dingus/AppData/Local/Temp/_gbsbuild/obj/sprite_health0.rel
                                          [ sprite_health0 ]
C:/Users/Dingus/AppData/Local/Temp/_gbsbuild/obj/sprite_health1_tileset.rel
                                          [ sprite_health1_tileset ]
C:/Users/Dingus/AppData/Local/Temp/_gbsbuild/obj/sprite_health1.rel
                                          [ sprite_health1 ]
C:/Users/Dingus/AppData/Local/Temp/_gbsbuild/obj/sprite_health2_tileset.rel
                                          [ sprite_health2_tileset ]
C:/Users/Dingus/AppData/Local/Temp/_gbsbuild/obj/sprite_health2.rel
                                          [ sprite_health2 ]
C:/Users/Dingus/AppData/Local/Temp/_gbsbuild/obj/sprite_health3_tileset.rel
                                          [ sprite_health3_tileset ]
C:/Users/Dingus/AppData/Local/Temp/_gbsbuild/obj/sprite_health3.rel
                                          [ sprite_health3 ]
C:/Users/Dingus/AppData/Local/Temp/_gbsbuild/obj/sprite_health4_tileset.rel
                                          [ sprite_health4_tileset ]
C:/Users/Dingus/AppData/Local/Temp/_gbsbuild/obj/sprite_health4.rel
                                          [ sprite_health4 ]
C:/Users/Dingus/AppData/Local/Temp/_gbsbuild/obj/sprite_invisible_tileset.rel
                                          [ sprite_invisible_tileset ]
C:/Users/Dingus/AppData/Local/Temp/_gbsbuild/obj/sprite_invisible.rel
                                          [ sprite_invisible ]
C:/Users/Dingus/AppData/Local/Temp/_gbsbuild/obj/sprite_map_cursor_tileset.rel
                                          [ sprite_map_cursor_tileset ]
C:/Users/Dingus/AppData/Local/Temp/_gbsbuild/obj/sprite_map_cursor.rel
                                          [ sprite_map_cursor ]
C:/Users/Dingus/AppData/Local/Temp/_gbsbuild/obj/sprite_screen_door_tileset.rel
                                          [ sprite_screen_door_tileset ]
C:/Users/Dingus/AppData/Local/Temp/_gbsbuild/obj/sprite_screen_door.rel
                                          [ sprite_screen_door ]
C:/Users/Dingus/AppData/Local/Temp/_gbsbuild/obj/sprite_signpost_tileset.rel
                                          [ sprite_signpost_tileset ]
C:/Users/Dingus/AppData/Local/Temp/_gbsbuild/obj/sprite_signpost.rel
                                          [ sprite_signpost ]
C:/Users/Dingus/AppData/Local/Temp/_gbsbuild/obj/sprite_trucker_face_ll_tileset.rel
                                          [ sprite_trucker_face_ll_tileset ]
C:/Users/Dingus/AppData/Local/Temp/_gbsbuild/obj/sprite_trucker_face_ll.rel
                                          [ sprite_trucker_face_ll ]
C:/Users/Dingus/AppData/Local/Temp/_gbsbuild/obj/sprite_trucker_face_lr_tileset.rel
                                          [ sprite_trucker_face_lr_tileset ]
C:/Users/Dingus/AppData/Local/Temp/_gbsbuild/obj/sprite_trucker_face_lr.rel
                                          [ sprite_trucker_face_lr ]
C:/Users/Dingus/AppData/Local/Temp/_gbsbuild/obj/sprite_trucker_face_ul_tileset.rel
                                          [ sprite_trucker_face_ul_tileset ]
C:/Users/Dingus/AppData/Local/Temp/_gbsbuild/obj/sprite_trucker_face_ul.rel
                                          [ sprite_trucker_face_ul ]
C:/Users/Dingus/AppData/Local/Temp/_gbsbuild/obj/sprite_trucker_face_ur_tileset.rel
                                          [ sprite_trucker_face_ur_tileset ]
C:/Users/Dingus/AppData/Local/Temp/_gbsbuild/obj/sprite_trucker_face_ur.rel
                                          [ sprite_trucker_face_ur ]
C:/Users/Dingus/AppData/Local/Temp/_gbsbuild/obj/sprite_trucker_tileset.rel
                                          [ sprite_trucker_tileset ]
C:/Users/Dingus/AppData/Local/Temp/_gbsbuild/obj/sprite_trucker.rel
                                          [ sprite_trucker ]
C:/Users/Dingus/AppData/Local/Temp/_gbsbuild/obj/sprite_vagrant_face_ll_tileset.rel
                                          [ sprite_vagrant_face_ll_tileset ]
C:/Users/Dingus/AppData/Local/Temp/_gbsbuild/obj/sprite_vagrant_face_ll.rel
                                          [ sprite_vagrant_face_ll ]
C:/Users/Dingus/AppData/Local/Temp/_gbsbuild/obj/sprite_vagrant_face_lr_tileset.rel
                                          [ sprite_vagrant_face_lr_tileset ]
C:/Users/Dingus/AppData/Local/Temp/_gbsbuild/obj/sprite_vagrant_face_lr.rel
                                          [ sprite_vagrant_face_lr ]
C:/Users/Dingus/AppData/Local/Temp/_gbsbuild/obj/sprite_vagrant_face_ul_tileset.rel
                                          [ sprite_vagrant_face_ul_tileset ]
C:/Users/Dingus/AppData/Local/Temp/_gbsbuild/obj/sprite_vagrant_face_ul.rel
                                          [ sprite_vagrant_face_ul ]
C:/Users/Dingus/AppData/Local/Temp/_gbsbuild/obj/sprite_vagrant_face_ur_tileset.rel
                                          [ sprite_vagrant_face_ur_tileset ]
C:/Users/Dingus/AppData/Local/Temp/_gbsbuild/obj/sprite_vagrant_face_ur.rel
                                          [ sprite_vagrant_face_ur ]
C:/Users/Dingus/AppData/Local/Temp/_gbsbuild/obj/sprite_vagrant_tileset.rel
                                          [ sprite_vagrant_tileset ]
C:/Users/Dingus/AppData/Local/Temp/_gbsbuild/obj/sprite_vagrant.rel
                                          [ sprite_vagrant ]
C:/Users/Dingus/AppData/Local/Temp/_gbsbuild/obj/sprite_witch_face_ll_tileset.rel
                                          [ sprite_witch_face_ll_tileset ]
C:/Users/Dingus/AppData/Local/Temp/_gbsbuild/obj/sprite_witch_face_ll.rel
                                          [ sprite_witch_face_ll ]
C:/Users/Dingus/AppData/Local/Temp/_gbsbuild/obj/sprite_witch_face_lr_tileset.rel
                                          [ sprite_witch_face_lr_tileset ]
C:/Users/Dingus/AppData/Local/Temp/_gbsbuild/obj/sprite_witch_face_lr.rel
                                          [ sprite_witch_face_lr ]
C:/Users/Dingus/AppData/Local/Temp/_gbsbuild/obj/sprite_witch_face_ul_tileset.rel
                                          [ sprite_witch_face_ul_tileset ]
C:/Users/Dingus/AppData/Local/Temp/_gbsbuild/obj/sprite_witch_face_ul.rel
                                          [ sprite_witch_face_ul ]
C:/Users/Dingus/AppData/Local/Temp/_gbsbuild/obj/sprite_witch_face_ur_tileset.rel
                                          [ sprite_witch_face_ur_tileset ]
C:/Users/Dingus/AppData/Local/Temp/_gbsbuild/obj/sprite_witch_face_ur.rel
                                          [ sprite_witch_face_ur ]
C:/Users/Dingus/AppData/Local/Temp/_gbsbuild/obj/sprite_witch_tileset.rel
                                          [ sprite_witch_tileset ]
C:/Users/Dingus/AppData/Local/Temp/_gbsbuild/obj/sprite_witch.rel
                                          [ sprite_witch ]
C:/Users/Dingus/AppData/Local/Temp/_gbsbuild/obj/spritesheet_none.rel
                                          [ spritesheet_none ]
C:/Users/Dingus/AppData/Local/Temp/_gbsbuild/obj/trigger_0_interact.rel
                                          [ trigger_0_interact ]
C:/Users/Dingus/AppData/Local/Temp/_gbsbuild/obj/trigger_1_interact.rel
                                          [ trigger_1_interact ]
C:/Users/Dingus/AppData/Local/Temp/_gbsbuild/obj/trigger_10_interact.rel
                                          [ trigger_10_interact ]
C:/Users/Dingus/AppData/Local/Temp/_gbsbuild/obj/trigger_11_interact.rel
                                          [ trigger_11_interact ]
C:/Users/Dingus/AppData/Local/Temp/_gbsbuild/obj/trigger_12_interact.rel
                                          [ trigger_12_interact ]
C:/Users/Dingus/AppData/Local/Temp/_gbsbuild/obj/trigger_13_interact.rel
                                          [ trigger_13_interact ]
C:/Users/Dingus/AppData/Local/Temp/_gbsbuild/obj/trigger_14_interact.rel
                                          [ trigger_14_interact ]
C:/Users/Dingus/AppData/Local/Temp/_gbsbuild/obj/trigger_17_interact.rel
                                          [ trigger_17_interact ]
C:/Users/Dingus/AppData/Local/Temp/_gbsbuild/obj/trigger_2_interact.rel
                                          [ trigger_2_interact ]
C:/Users/Dingus/AppData/Local/Temp/_gbsbuild/obj/trigger_20_interact.rel
                                          [ trigger_20_interact ]
C:/Users/Dingus/AppData/Local/Temp/_gbsbuild/obj/trigger_23_interact.rel
                                          [ trigger_23_interact ]
C:/Users/Dingus/AppData/Local/Temp/_gbsbuild/obj/trigger_24_interact.rel
                                          [ trigger_24_interact ]
C:/Users/Dingus/AppData/Local/Temp/_gbsbuild/obj/trigger_25_interact.rel
                                          [ trigger_25_interact ]
C:/Users/Dingus/AppData/Local/Temp/_gbsbuild/obj/trigger_26_interact.rel
                                          [ trigger_26_interact ]
C:/Users/Dingus/AppData/Local/Temp/_gbsbuild/obj/trigger_27_interact.rel
                                          [ trigger_27_interact ]
C:/Users/Dingus/AppData/Local/Temp/_gbsbuild/obj/trigger_29_interact.rel
                                          [ trigger_29_interact ]
C:/Users/Dingus/AppData/Local/Temp/_gbsbuild/obj/trigger_3_interact.rel
                                          [ trigger_3_interact ]
C:/Users/Dingus/AppData/Local/Temp/_gbsbuild/obj/trigger_30_interact.rel
                                          [ trigger_30_interact ]
C:/Users/Dingus/AppData/Local/Temp/_gbsbuild/obj/trigger_31_interact.rel
                                          [ trigger_31_interact ]
C:/Users/Dingus/AppData/Local/Temp/_gbsbuild/obj/trigger_35_interact.rel
                                          [ trigger_35_interact ]
C:/Users/Dingus/AppData/Local/Temp/_gbsbuild/obj/trigger_36_interact.rel
                                          [ trigger_36_interact ]
C:/Users/Dingus/AppData/Local/Temp/_gbsbuild/obj/trigger_37_interact.rel
                                          [ trigger_37_interact ]
C:/Users/Dingus/AppData/Local/Temp/_gbsbuild/obj/trigger_4_interact.rel
                                          [ trigger_4_interact ]
C:/Users/Dingus/AppData/Local/Temp/_gbsbuild/obj/trigger_40_interact.rel
                                          [ trigger_40_interact ]
C:/Users/Dingus/AppData/Local/Temp/_gbsbuild/obj/trigger_42_interact.rel
                                          [ trigger_42_interact ]
C:/Users/Dingus/AppData/Local/Temp/_gbsbuild/obj/trigger_43_interact.rel
                                          [ trigger_43_interact ]
C:/Users/Dingus/AppData/Local/Temp/_gbsbuild/obj/trigger_5_interact.rel
                                          [ trigger_5_interact ]
C:/Users/Dingus/AppData/Local/Temp/_gbsbuild/obj/trigger_6_interact.rel
                                          [ trigger_6_interact ]
C:/Users/Dingus/AppData/Local/Temp/_gbsbuild/obj/trigger_7_interact.rel
                                          [ trigger_7_interact ]
C:/Users/Dingus/AppData/Local/Temp/_gbsbuild/obj/trigger_8_interact.rel
                                          [ trigger_8_interact ]
C:/Users/Dingus/AppData/Local/Temp/_gbsbuild/obj/trigger_9_interact.rel
                                          [ trigger_9_interact ]
C:/Users/Dingus/AppData/Local/Temp/_gbsbuild/obj/trigger_east_exit_interact.rel
                                          [ trigger_east_exit_interact ]
C:/Users/Dingus/AppData/Local/Temp/_gbsbuild/obj/trigger_north_exit_interact.rel
                                          [ trigger_north_exit_interact ]
C:/Users/Dingus/AppData/Local/Temp/_gbsbuild/obj/trigger_south_exit_interact.rel
                                          [ trigger_south_exit_interact ]
C:/Users/Dingus/AppData/Local/Temp/_gbsbuild/obj/trigger_west_exit_interact.rel
                                          [ trigger_west_exit_interact ]
C:/Users/Dingus/AppData/Local/Temp/_gbsbuild/obj/main.rel
                                          [ main ]
C:/Users/Dingus/AppData/Local/Temp/_gbsbuild/obj/adventure.rel
                                          [ adventure ]
C:/Users/Dingus/AppData/Local/Temp/_gbsbuild/obj/logo.rel
                                          [ logo ]
C:/Users/Dingus/AppData/Local/Temp/_gbsbuild/obj/platform.rel
                                          [ platform ]
C:/Users/Dingus/AppData/Local/Temp/_gbsbuild/obj/pointnclick.rel
                                          [ pointnclick ]
C:/Users/Dingus/AppData/Local/Temp/_gbsbuild/obj/shmup.rel
                                          [ shmup ]
C:/Users/Dingus/AppData/Local/Temp/_gbsbuild/obj/states_ptrs.rel
                                          [  ]
C:/Users/Dingus/AppData/Local/Temp/_gbsbuild/obj/topdown.rel
                                          [ topdown ]


Libraries Linked                          [ object file ]

C:\Users\Dingus\AppData\Local\Temp/_gbstools/gbdk/lib/small/asxxxx/gb/gb.lib
                                          [ fill_rect_wi.o ]
C:\Users\Dingus\AppData\Local\Temp/_gbstools/gbdk/lib/small/asxxxx/gbz80/gbz80.lib
                                          [ rand.o ]
lib/hUGEDriver.lib                        [ hUGEDriver.obj.o ]
C:\Users\Dingus\AppData\Local\Temp/_gbstools/gbdk/lib/small/asxxxx/gb/gb.lib
                                          [ sfr.o ]
C:\Users\Dingus\AppData\Local\Temp/_gbstools/gbdk/lib/small/asxxxx/gb/gb.lib
                                          [ get_data.o ]
C:\Users\Dingus\AppData\Local\Temp/_gbstools/gbdk/lib/small/asxxxx/gb/gb.lib
                                          [ get_tile.o ]
C:\Users\Dingus\AppData\Local\Temp/_gbstools/gbdk/lib/small/asxxxx/gb/gb.lib
                                          [ cgb_palettes.o ]
C:\Users\Dingus\AppData\Local\Temp/_gbstools/gbdk/lib/small/asxxxx/gb/gb.lib
                                          [ metasprites_hide_spr.o ]
C:\Users\Dingus\AppData\Local\Temp/_gbstools/gbdk/lib/small/asxxxx/gbz80/gbz80.lib
                                          [ mul.o ]
C:\Users\Dingus\AppData\Local\Temp/_gbstools/gbdk/lib/small/asxxxx/gbz80/gbz80.lib
                                          [ abs.o ]
C:\Users\Dingus\AppData\Local\Temp/_gbstools/gbdk/lib/small/asxxxx/gb/gb.lib
                                          [ set_wi_t.o ]
C:\Users\Dingus\AppData\Local\Temp/_gbstools/gbdk/lib/small/asxxxx/gb/gb.lib
                                          [ set_data.o ]
C:\Users\Dingus\AppData\Local\Temp/_gbstools/gbdk/lib/small/asxxxx/gbz80/gbz80.lib
                                          [ reverse.o ]
C:\Users\Dingus\AppData\Local\Temp/_gbstools/gbdk/lib/small/asxxxx/gb/gb.lib
                                          [ far_ptr.o ]
C:\Users\Dingus\AppData\Local\Temp/_gbstools/gbdk/lib/small/asxxxx/gb/gb.lib
                                          [ sgb.o ]
C:\Users\Dingus\AppData\Local\Temp/_gbstools/gbdk/lib/small/asxxxx/gb/gb.lib
                                          [ lcd.o ]
C:\Users\Dingus\AppData\Local\Temp/_gbstools/gbdk/lib/small/asxxxx/gb/gb.lib
                                          [ fill_rect.o ]
C:\Users\Dingus\AppData\Local\Temp/_gbstools/gbdk/lib/small/asxxxx/gb/gb.lib
                                          [ pad_ex.o ]
C:\Users\Dingus\AppData\Local\Temp/_gbstools/gbdk/lib/small/asxxxx/gb/gb.lib
                                          [ cpy_data.o ]
C:\Users\Dingus\AppData\Local\Temp/_gbstools/gbdk/lib/small/asxxxx/gb/gb.lib
                                          [ fill_rect_bk.o ]
C:\Users\Dingus\AppData\Local\Temp/_gbstools/gbdk/lib/small/asxxxx/gb/gb.lib
                                          [ metasprites.o ]
C:\Users\Dingus\AppData\Local\Temp/_gbstools/gbdk/lib/small/asxxxx/gbz80/gbz80.lib
                                          [ __sdcc_call_hl.o ]
C:\Users\Dingus\AppData\Local\Temp/_gbstools/gbdk/lib/small/asxxxx/gbz80/gbz80.lib
                                          [ _memcpy.o ]
C:\Users\Dingus\AppData\Local\Temp/_gbstools/gbdk/lib/small/asxxxx/gbz80/gbz80.lib
                                          [ _memset.o ]
C:\Users\Dingus\AppData\Local\Temp/_gbstools/gbdk/lib/small/asxxxx/gb/gb.lib
                                          [ set_xy_t.o ]
C:\Users\Dingus\AppData\Local\Temp/_gbstools/gbdk/lib/small/asxxxx/gb/gb.lib
                                          [ cgb.o ]
C:\Users\Dingus\AppData\Local\Temp/_gbstools/gbdk/lib/small/asxxxx/gbz80/gbz80.lib
                                          [ div.o ]
C:\Users\Dingus\AppData\Local\Temp/_gbstools/gbdk/lib/small/asxxxx/gb/gb.lib
                                          [ set_bk_t.o ]

ASxxxx Linker V03.00 + NoICE + sdld,  page 82.

User Base Address Definitions

_DATA=0xC0A0
_CODE=0x0200
ASxxxx Linker V03.00 + NoICE + sdld,  page 83.

User Global Definitions

.STACK=0xDF00
_shadow_OAM=0xC000
.refresh_OAM=0xFF80
__start_save=12

